
MPT-Einfuehrung.elf:     file format elf32-littlearm

Sections:
Idx Name          Size      VMA       LMA       File off  Algn
  0 .isr_vector   000001ac  08000000  08000000  00001000  2**0
                  CONTENTS, ALLOC, LOAD, READONLY, DATA
  1 .text         00002590  080001ac  080001ac  000011ac  2**2
                  CONTENTS, ALLOC, LOAD, READONLY, CODE
  2 .rodata       00000000  0800273c  0800273c  00004004  2**0
                  CONTENTS, ALLOC, LOAD, DATA
  3 .ARM.extab    00000000  0800273c  0800273c  00004004  2**0
                  CONTENTS, READONLY
  4 .ARM          00000000  0800273c  0800273c  00004004  2**0
                  CONTENTS, READONLY
  5 .preinit_array 00000000  0800273c  0800273c  00004004  2**0
                  CONTENTS, ALLOC, LOAD, DATA
  6 .init_array   00000004  0800273c  0800273c  0000373c  2**2
                  CONTENTS, ALLOC, LOAD, READONLY, DATA
  7 .fini_array   00000004  08002740  08002740  00003740  2**2
                  CONTENTS, ALLOC, LOAD, READONLY, DATA
  8 .data         00000004  20000000  08002744  00004000  2**0
                  CONTENTS, ALLOC, LOAD, DATA
  9 .ccmram       00000000  10000000  10000000  00004004  2**0
                  CONTENTS
 10 .bss          00000400  20000004  20000004  00004004  2**2
                  ALLOC
 11 ._user_heap_stack 00000604  20000404  20000404  00004004  2**0
                  ALLOC
 12 .ARM.attributes 0000002a  00000000  00000000  00004004  2**0
                  CONTENTS, READONLY
 13 .debug_info   000073e4  00000000  00000000  0000402e  2**0
                  CONTENTS, READONLY, DEBUGGING, OCTETS
 14 .debug_abbrev 00000d67  00000000  00000000  0000b412  2**0
                  CONTENTS, READONLY, DEBUGGING, OCTETS
 15 .debug_aranges 000004f0  00000000  00000000  0000c180  2**3
                  CONTENTS, READONLY, DEBUGGING, OCTETS
 16 .debug_rnglists 000003b7  00000000  00000000  0000c670  2**0
                  CONTENTS, READONLY, DEBUGGING, OCTETS
 17 .debug_macro  00026563  00000000  00000000  0000ca27  2**0
                  CONTENTS, READONLY, DEBUGGING, OCTETS
 18 .debug_line   0000653c  00000000  00000000  00032f8a  2**0
                  CONTENTS, READONLY, DEBUGGING, OCTETS
 19 .debug_str    000f3456  00000000  00000000  000394c6  2**0
                  CONTENTS, READONLY, DEBUGGING, OCTETS
 20 .comment      00000043  00000000  00000000  0012c91c  2**0
                  CONTENTS, READONLY
 21 .debug_frame  000012c4  00000000  00000000  0012c960  2**2
                  CONTENTS, READONLY, DEBUGGING, OCTETS
 22 .debug_line_str 00000090  00000000  00000000  0012dc24  2**0
                  CONTENTS, READONLY, DEBUGGING, OCTETS

Disassembly of section .text:

080001ac <__do_global_dtors_aux>:
 80001ac:	b510      	push	{r4, lr}
 80001ae:	4c05      	ldr	r4, [pc, #20]	@ (80001c4 <__do_global_dtors_aux+0x18>)
 80001b0:	7823      	ldrb	r3, [r4, #0]
 80001b2:	b933      	cbnz	r3, 80001c2 <__do_global_dtors_aux+0x16>
 80001b4:	4b04      	ldr	r3, [pc, #16]	@ (80001c8 <__do_global_dtors_aux+0x1c>)
 80001b6:	b113      	cbz	r3, 80001be <__do_global_dtors_aux+0x12>
 80001b8:	4804      	ldr	r0, [pc, #16]	@ (80001cc <__do_global_dtors_aux+0x20>)
 80001ba:	f3af 8000 	nop.w
 80001be:	2301      	movs	r3, #1
 80001c0:	7023      	strb	r3, [r4, #0]
 80001c2:	bd10      	pop	{r4, pc}
 80001c4:	20000004 	.word	0x20000004
 80001c8:	00000000 	.word	0x00000000
 80001cc:	08002724 	.word	0x08002724

080001d0 <frame_dummy>:
 80001d0:	b508      	push	{r3, lr}
 80001d2:	4b03      	ldr	r3, [pc, #12]	@ (80001e0 <frame_dummy+0x10>)
 80001d4:	b11b      	cbz	r3, 80001de <frame_dummy+0xe>
 80001d6:	4903      	ldr	r1, [pc, #12]	@ (80001e4 <frame_dummy+0x14>)
 80001d8:	4803      	ldr	r0, [pc, #12]	@ (80001e8 <frame_dummy+0x18>)
 80001da:	f3af 8000 	nop.w
 80001de:	bd08      	pop	{r3, pc}
 80001e0:	00000000 	.word	0x00000000
 80001e4:	20000008 	.word	0x20000008
 80001e8:	08002724 	.word	0x08002724

080001ec <__aeabi_fmul>:
 80001ec:	f04f 0cff 	mov.w	ip, #255	@ 0xff
 80001f0:	ea1c 52d0 	ands.w	r2, ip, r0, lsr #23
 80001f4:	bf1e      	ittt	ne
 80001f6:	ea1c 53d1 	andsne.w	r3, ip, r1, lsr #23
 80001fa:	ea92 0f0c 	teqne	r2, ip
 80001fe:	ea93 0f0c 	teqne	r3, ip
 8000202:	d06f      	beq.n	80002e4 <__aeabi_fmul+0xf8>
 8000204:	441a      	add	r2, r3
 8000206:	ea80 0c01 	eor.w	ip, r0, r1
 800020a:	0240      	lsls	r0, r0, #9
 800020c:	bf18      	it	ne
 800020e:	ea5f 2141 	movsne.w	r1, r1, lsl #9
 8000212:	d01e      	beq.n	8000252 <__aeabi_fmul+0x66>
 8000214:	f04f 6300 	mov.w	r3, #134217728	@ 0x8000000
 8000218:	ea43 1050 	orr.w	r0, r3, r0, lsr #5
 800021c:	ea43 1151 	orr.w	r1, r3, r1, lsr #5
 8000220:	fba0 3101 	umull	r3, r1, r0, r1
 8000224:	f00c 4000 	and.w	r0, ip, #2147483648	@ 0x80000000
 8000228:	f5b1 0f00 	cmp.w	r1, #8388608	@ 0x800000
 800022c:	bf3e      	ittt	cc
 800022e:	0049      	lslcc	r1, r1, #1
 8000230:	ea41 71d3 	orrcc.w	r1, r1, r3, lsr #31
 8000234:	005b      	lslcc	r3, r3, #1
 8000236:	ea40 0001 	orr.w	r0, r0, r1
 800023a:	f162 027f 	sbc.w	r2, r2, #127	@ 0x7f
 800023e:	2afd      	cmp	r2, #253	@ 0xfd
 8000240:	d81d      	bhi.n	800027e <__aeabi_fmul+0x92>
 8000242:	f1b3 4f00 	cmp.w	r3, #2147483648	@ 0x80000000
 8000246:	eb40 50c2 	adc.w	r0, r0, r2, lsl #23
 800024a:	bf08      	it	eq
 800024c:	f020 0001 	biceq.w	r0, r0, #1
 8000250:	4770      	bx	lr
 8000252:	f090 0f00 	teq	r0, #0
 8000256:	f00c 4c00 	and.w	ip, ip, #2147483648	@ 0x80000000
 800025a:	bf08      	it	eq
 800025c:	0249      	lsleq	r1, r1, #9
 800025e:	ea4c 2050 	orr.w	r0, ip, r0, lsr #9
 8000262:	ea40 2051 	orr.w	r0, r0, r1, lsr #9
 8000266:	3a7f      	subs	r2, #127	@ 0x7f
 8000268:	bfc2      	ittt	gt
 800026a:	f1d2 03ff 	rsbsgt	r3, r2, #255	@ 0xff
 800026e:	ea40 50c2 	orrgt.w	r0, r0, r2, lsl #23
 8000272:	4770      	bxgt	lr
 8000274:	f440 0000 	orr.w	r0, r0, #8388608	@ 0x800000
 8000278:	f04f 0300 	mov.w	r3, #0
 800027c:	3a01      	subs	r2, #1
 800027e:	dc5d      	bgt.n	800033c <__aeabi_fmul+0x150>
 8000280:	f112 0f19 	cmn.w	r2, #25
 8000284:	bfdc      	itt	le
 8000286:	f000 4000 	andle.w	r0, r0, #2147483648	@ 0x80000000
 800028a:	4770      	bxle	lr
 800028c:	f1c2 0200 	rsb	r2, r2, #0
 8000290:	0041      	lsls	r1, r0, #1
 8000292:	fa21 f102 	lsr.w	r1, r1, r2
 8000296:	f1c2 0220 	rsb	r2, r2, #32
 800029a:	fa00 fc02 	lsl.w	ip, r0, r2
 800029e:	ea5f 0031 	movs.w	r0, r1, rrx
 80002a2:	f140 0000 	adc.w	r0, r0, #0
 80002a6:	ea53 034c 	orrs.w	r3, r3, ip, lsl #1
 80002aa:	bf08      	it	eq
 80002ac:	ea20 70dc 	biceq.w	r0, r0, ip, lsr #31
 80002b0:	4770      	bx	lr
 80002b2:	f092 0f00 	teq	r2, #0
 80002b6:	f000 4c00 	and.w	ip, r0, #2147483648	@ 0x80000000
 80002ba:	bf02      	ittt	eq
 80002bc:	0040      	lsleq	r0, r0, #1
 80002be:	f410 0f00 	tsteq.w	r0, #8388608	@ 0x800000
 80002c2:	3a01      	subeq	r2, #1
 80002c4:	d0f9      	beq.n	80002ba <__aeabi_fmul+0xce>
 80002c6:	ea40 000c 	orr.w	r0, r0, ip
 80002ca:	f093 0f00 	teq	r3, #0
 80002ce:	f001 4c00 	and.w	ip, r1, #2147483648	@ 0x80000000
 80002d2:	bf02      	ittt	eq
 80002d4:	0049      	lsleq	r1, r1, #1
 80002d6:	f411 0f00 	tsteq.w	r1, #8388608	@ 0x800000
 80002da:	3b01      	subeq	r3, #1
 80002dc:	d0f9      	beq.n	80002d2 <__aeabi_fmul+0xe6>
 80002de:	ea41 010c 	orr.w	r1, r1, ip
 80002e2:	e78f      	b.n	8000204 <__aeabi_fmul+0x18>
 80002e4:	ea0c 53d1 	and.w	r3, ip, r1, lsr #23
 80002e8:	ea92 0f0c 	teq	r2, ip
 80002ec:	bf18      	it	ne
 80002ee:	ea93 0f0c 	teqne	r3, ip
 80002f2:	d00a      	beq.n	800030a <__aeabi_fmul+0x11e>
 80002f4:	f030 4c00 	bics.w	ip, r0, #2147483648	@ 0x80000000
 80002f8:	bf18      	it	ne
 80002fa:	f031 4c00 	bicsne.w	ip, r1, #2147483648	@ 0x80000000
 80002fe:	d1d8      	bne.n	80002b2 <__aeabi_fmul+0xc6>
 8000300:	ea80 0001 	eor.w	r0, r0, r1
 8000304:	f000 4000 	and.w	r0, r0, #2147483648	@ 0x80000000
 8000308:	4770      	bx	lr
 800030a:	f090 0f00 	teq	r0, #0
 800030e:	bf17      	itett	ne
 8000310:	f090 4f00 	teqne	r0, #2147483648	@ 0x80000000
 8000314:	4608      	moveq	r0, r1
 8000316:	f091 0f00 	teqne	r1, #0
 800031a:	f091 4f00 	teqne	r1, #2147483648	@ 0x80000000
 800031e:	d014      	beq.n	800034a <__aeabi_fmul+0x15e>
 8000320:	ea92 0f0c 	teq	r2, ip
 8000324:	d101      	bne.n	800032a <__aeabi_fmul+0x13e>
 8000326:	0242      	lsls	r2, r0, #9
 8000328:	d10f      	bne.n	800034a <__aeabi_fmul+0x15e>
 800032a:	ea93 0f0c 	teq	r3, ip
 800032e:	d103      	bne.n	8000338 <__aeabi_fmul+0x14c>
 8000330:	024b      	lsls	r3, r1, #9
 8000332:	bf18      	it	ne
 8000334:	4608      	movne	r0, r1
 8000336:	d108      	bne.n	800034a <__aeabi_fmul+0x15e>
 8000338:	ea80 0001 	eor.w	r0, r0, r1
 800033c:	f000 4000 	and.w	r0, r0, #2147483648	@ 0x80000000
 8000340:	f040 40fe 	orr.w	r0, r0, #2130706432	@ 0x7f000000
 8000344:	f440 0000 	orr.w	r0, r0, #8388608	@ 0x800000
 8000348:	4770      	bx	lr
 800034a:	f040 40fe 	orr.w	r0, r0, #2130706432	@ 0x7f000000
 800034e:	f440 0040 	orr.w	r0, r0, #12582912	@ 0xc00000
 8000352:	4770      	bx	lr

08000354 <__aeabi_frsub>:
 8000354:	f080 4000 	eor.w	r0, r0, #2147483648	@ 0x80000000
 8000358:	e002      	b.n	8000360 <__addsf3>
 800035a:	bf00      	nop

0800035c <__aeabi_fsub>:
 800035c:	f081 4100 	eor.w	r1, r1, #2147483648	@ 0x80000000

08000360 <__addsf3>:
 8000360:	0042      	lsls	r2, r0, #1
 8000362:	bf1f      	itttt	ne
 8000364:	ea5f 0341 	movsne.w	r3, r1, lsl #1
 8000368:	ea92 0f03 	teqne	r2, r3
 800036c:	ea7f 6c22 	mvnsne.w	ip, r2, asr #24
 8000370:	ea7f 6c23 	mvnsne.w	ip, r3, asr #24
 8000374:	d06a      	beq.n	800044c <__addsf3+0xec>
 8000376:	ea4f 6212 	mov.w	r2, r2, lsr #24
 800037a:	ebd2 6313 	rsbs	r3, r2, r3, lsr #24
 800037e:	bfc1      	itttt	gt
 8000380:	18d2      	addgt	r2, r2, r3
 8000382:	4041      	eorgt	r1, r0
 8000384:	4048      	eorgt	r0, r1
 8000386:	4041      	eorgt	r1, r0
 8000388:	bfb8      	it	lt
 800038a:	425b      	neglt	r3, r3
 800038c:	2b19      	cmp	r3, #25
 800038e:	bf88      	it	hi
 8000390:	4770      	bxhi	lr
 8000392:	f010 4f00 	tst.w	r0, #2147483648	@ 0x80000000
 8000396:	f440 0000 	orr.w	r0, r0, #8388608	@ 0x800000
 800039a:	f020 407f 	bic.w	r0, r0, #4278190080	@ 0xff000000
 800039e:	bf18      	it	ne
 80003a0:	4240      	negne	r0, r0
 80003a2:	f011 4f00 	tst.w	r1, #2147483648	@ 0x80000000
 80003a6:	f441 0100 	orr.w	r1, r1, #8388608	@ 0x800000
 80003aa:	f021 417f 	bic.w	r1, r1, #4278190080	@ 0xff000000
 80003ae:	bf18      	it	ne
 80003b0:	4249      	negne	r1, r1
 80003b2:	ea92 0f03 	teq	r2, r3
 80003b6:	d03f      	beq.n	8000438 <__addsf3+0xd8>
 80003b8:	f1a2 0201 	sub.w	r2, r2, #1
 80003bc:	fa41 fc03 	asr.w	ip, r1, r3
 80003c0:	eb10 000c 	adds.w	r0, r0, ip
 80003c4:	f1c3 0320 	rsb	r3, r3, #32
 80003c8:	fa01 f103 	lsl.w	r1, r1, r3
 80003cc:	f000 4300 	and.w	r3, r0, #2147483648	@ 0x80000000
 80003d0:	d502      	bpl.n	80003d8 <__addsf3+0x78>
 80003d2:	4249      	negs	r1, r1
 80003d4:	eb60 0040 	sbc.w	r0, r0, r0, lsl #1
 80003d8:	f5b0 0f00 	cmp.w	r0, #8388608	@ 0x800000
 80003dc:	d313      	bcc.n	8000406 <__addsf3+0xa6>
 80003de:	f1b0 7f80 	cmp.w	r0, #16777216	@ 0x1000000
 80003e2:	d306      	bcc.n	80003f2 <__addsf3+0x92>
 80003e4:	0840      	lsrs	r0, r0, #1
 80003e6:	ea4f 0131 	mov.w	r1, r1, rrx
 80003ea:	f102 0201 	add.w	r2, r2, #1
 80003ee:	2afe      	cmp	r2, #254	@ 0xfe
 80003f0:	d251      	bcs.n	8000496 <__addsf3+0x136>
 80003f2:	f1b1 4f00 	cmp.w	r1, #2147483648	@ 0x80000000
 80003f6:	eb40 50c2 	adc.w	r0, r0, r2, lsl #23
 80003fa:	bf08      	it	eq
 80003fc:	f020 0001 	biceq.w	r0, r0, #1
 8000400:	ea40 0003 	orr.w	r0, r0, r3
 8000404:	4770      	bx	lr
 8000406:	0049      	lsls	r1, r1, #1
 8000408:	eb40 0000 	adc.w	r0, r0, r0
 800040c:	3a01      	subs	r2, #1
 800040e:	bf28      	it	cs
 8000410:	f5b0 0f00 	cmpcs.w	r0, #8388608	@ 0x800000
 8000414:	d2ed      	bcs.n	80003f2 <__addsf3+0x92>
 8000416:	fab0 fc80 	clz	ip, r0
 800041a:	f1ac 0c08 	sub.w	ip, ip, #8
 800041e:	ebb2 020c 	subs.w	r2, r2, ip
 8000422:	fa00 f00c 	lsl.w	r0, r0, ip
 8000426:	bfaa      	itet	ge
 8000428:	eb00 50c2 	addge.w	r0, r0, r2, lsl #23
 800042c:	4252      	neglt	r2, r2
 800042e:	4318      	orrge	r0, r3
 8000430:	bfbc      	itt	lt
 8000432:	40d0      	lsrlt	r0, r2
 8000434:	4318      	orrlt	r0, r3
 8000436:	4770      	bx	lr
 8000438:	f092 0f00 	teq	r2, #0
 800043c:	f481 0100 	eor.w	r1, r1, #8388608	@ 0x800000
 8000440:	bf06      	itte	eq
 8000442:	f480 0000 	eoreq.w	r0, r0, #8388608	@ 0x800000
 8000446:	3201      	addeq	r2, #1
 8000448:	3b01      	subne	r3, #1
 800044a:	e7b5      	b.n	80003b8 <__addsf3+0x58>
 800044c:	ea4f 0341 	mov.w	r3, r1, lsl #1
 8000450:	ea7f 6c22 	mvns.w	ip, r2, asr #24
 8000454:	bf18      	it	ne
 8000456:	ea7f 6c23 	mvnsne.w	ip, r3, asr #24
 800045a:	d021      	beq.n	80004a0 <__addsf3+0x140>
 800045c:	ea92 0f03 	teq	r2, r3
 8000460:	d004      	beq.n	800046c <__addsf3+0x10c>
 8000462:	f092 0f00 	teq	r2, #0
 8000466:	bf08      	it	eq
 8000468:	4608      	moveq	r0, r1
 800046a:	4770      	bx	lr
 800046c:	ea90 0f01 	teq	r0, r1
 8000470:	bf1c      	itt	ne
 8000472:	2000      	movne	r0, #0
 8000474:	4770      	bxne	lr
 8000476:	f012 4f7f 	tst.w	r2, #4278190080	@ 0xff000000
 800047a:	d104      	bne.n	8000486 <__addsf3+0x126>
 800047c:	0040      	lsls	r0, r0, #1
 800047e:	bf28      	it	cs
 8000480:	f040 4000 	orrcs.w	r0, r0, #2147483648	@ 0x80000000
 8000484:	4770      	bx	lr
 8000486:	f112 7200 	adds.w	r2, r2, #33554432	@ 0x2000000
 800048a:	bf3c      	itt	cc
 800048c:	f500 0000 	addcc.w	r0, r0, #8388608	@ 0x800000
 8000490:	4770      	bxcc	lr
 8000492:	f000 4300 	and.w	r3, r0, #2147483648	@ 0x80000000
 8000496:	f043 40fe 	orr.w	r0, r3, #2130706432	@ 0x7f000000
 800049a:	f440 0000 	orr.w	r0, r0, #8388608	@ 0x800000
 800049e:	4770      	bx	lr
 80004a0:	ea7f 6222 	mvns.w	r2, r2, asr #24
 80004a4:	bf16      	itet	ne
 80004a6:	4608      	movne	r0, r1
 80004a8:	ea7f 6323 	mvnseq.w	r3, r3, asr #24
 80004ac:	4601      	movne	r1, r0
 80004ae:	0242      	lsls	r2, r0, #9
 80004b0:	bf06      	itte	eq
 80004b2:	ea5f 2341 	movseq.w	r3, r1, lsl #9
 80004b6:	ea90 0f01 	teqeq	r0, r1
 80004ba:	f440 0080 	orrne.w	r0, r0, #4194304	@ 0x400000
 80004be:	4770      	bx	lr

080004c0 <__aeabi_ui2f>:
 80004c0:	f04f 0300 	mov.w	r3, #0
 80004c4:	e004      	b.n	80004d0 <__aeabi_i2f+0x8>
 80004c6:	bf00      	nop

080004c8 <__aeabi_i2f>:
 80004c8:	f010 4300 	ands.w	r3, r0, #2147483648	@ 0x80000000
 80004cc:	bf48      	it	mi
 80004ce:	4240      	negmi	r0, r0
 80004d0:	ea5f 0c00 	movs.w	ip, r0
 80004d4:	bf08      	it	eq
 80004d6:	4770      	bxeq	lr
 80004d8:	f043 4396 	orr.w	r3, r3, #1258291200	@ 0x4b000000
 80004dc:	4601      	mov	r1, r0
 80004de:	f04f 0000 	mov.w	r0, #0
 80004e2:	e01c      	b.n	800051e <__aeabi_l2f+0x2a>

080004e4 <__aeabi_ul2f>:
 80004e4:	ea50 0201 	orrs.w	r2, r0, r1
 80004e8:	bf08      	it	eq
 80004ea:	4770      	bxeq	lr
 80004ec:	f04f 0300 	mov.w	r3, #0
 80004f0:	e00a      	b.n	8000508 <__aeabi_l2f+0x14>
 80004f2:	bf00      	nop

080004f4 <__aeabi_l2f>:
 80004f4:	ea50 0201 	orrs.w	r2, r0, r1
 80004f8:	bf08      	it	eq
 80004fa:	4770      	bxeq	lr
 80004fc:	f011 4300 	ands.w	r3, r1, #2147483648	@ 0x80000000
 8000500:	d502      	bpl.n	8000508 <__aeabi_l2f+0x14>
 8000502:	4240      	negs	r0, r0
 8000504:	eb61 0141 	sbc.w	r1, r1, r1, lsl #1
 8000508:	ea5f 0c01 	movs.w	ip, r1
 800050c:	bf02      	ittt	eq
 800050e:	4684      	moveq	ip, r0
 8000510:	4601      	moveq	r1, r0
 8000512:	2000      	moveq	r0, #0
 8000514:	f043 43b6 	orr.w	r3, r3, #1526726656	@ 0x5b000000
 8000518:	bf08      	it	eq
 800051a:	f1a3 5380 	subeq.w	r3, r3, #268435456	@ 0x10000000
 800051e:	f5a3 0300 	sub.w	r3, r3, #8388608	@ 0x800000
 8000522:	fabc f28c 	clz	r2, ip
 8000526:	3a08      	subs	r2, #8
 8000528:	eba3 53c2 	sub.w	r3, r3, r2, lsl #23
 800052c:	db10      	blt.n	8000550 <__aeabi_l2f+0x5c>
 800052e:	fa01 fc02 	lsl.w	ip, r1, r2
 8000532:	4463      	add	r3, ip
 8000534:	fa00 fc02 	lsl.w	ip, r0, r2
 8000538:	f1c2 0220 	rsb	r2, r2, #32
 800053c:	f1bc 4f00 	cmp.w	ip, #2147483648	@ 0x80000000
 8000540:	fa20 f202 	lsr.w	r2, r0, r2
 8000544:	eb43 0002 	adc.w	r0, r3, r2
 8000548:	bf08      	it	eq
 800054a:	f020 0001 	biceq.w	r0, r0, #1
 800054e:	4770      	bx	lr
 8000550:	f102 0220 	add.w	r2, r2, #32
 8000554:	fa01 fc02 	lsl.w	ip, r1, r2
 8000558:	f1c2 0220 	rsb	r2, r2, #32
 800055c:	ea50 004c 	orrs.w	r0, r0, ip, lsl #1
 8000560:	fa21 f202 	lsr.w	r2, r1, r2
 8000564:	eb43 0002 	adc.w	r0, r3, r2
 8000568:	bf08      	it	eq
 800056a:	ea20 70dc 	biceq.w	r0, r0, ip, lsr #31
 800056e:	4770      	bx	lr

08000570 <main>:
  * @retval int
  */

// /*
int main(void)
{
 8000570:	b580      	push	{r7, lr}
 8000572:	b084      	sub	sp, #16
 8000574:	af00      	add	r7, sp, #0
	int integer = 3;
 8000576:	2303      	movs	r3, #3
 8000578:	60fb      	str	r3, [r7, #12]
	float floatzahl = 2.75;
 800057a:	4b09      	ldr	r3, [pc, #36]	@ (80005a0 <main+0x30>)
 800057c:	60bb      	str	r3, [r7, #8]
	float ergebnis;
	ergebnis = integer * floatzahl;
 800057e:	68f8      	ldr	r0, [r7, #12]
 8000580:	f7ff ffa2 	bl	80004c8 <__aeabi_i2f>
 8000584:	4603      	mov	r3, r0
 8000586:	4619      	mov	r1, r3
 8000588:	68b8      	ldr	r0, [r7, #8]
 800058a:	f7ff fe2f 	bl	80001ec <__aeabi_fmul>
 800058e:	4603      	mov	r3, r0
 8000590:	607b      	str	r3, [r7, #4]
	(void)ergebnis;
	__asm__("nop;");
 8000592:	bf00      	nop
 8000594:	2300      	movs	r3, #0
}
 8000596:	4618      	mov	r0, r3
 8000598:	3710      	adds	r7, #16
 800059a:	46bd      	mov	sp, r7
 800059c:	bd80      	pop	{r7, pc}
 800059e:	bf00      	nop
 80005a0:	40300000 	.word	0x40300000

080005a4 <NMI_Handler>:
/******************************************************************************/
/**
  * @brief This function handles Non maskable interrupt.
  */
void NMI_Handler(void)
{
 80005a4:	b480      	push	{r7}
 80005a6:	af00      	add	r7, sp, #0
  /* USER CODE BEGIN NonMaskableInt_IRQn 0 */

  /* USER CODE END NonMaskableInt_IRQn 0 */
  /* USER CODE BEGIN NonMaskableInt_IRQn 1 */
   while (1)
 80005a8:	bf00      	nop
 80005aa:	e7fd      	b.n	80005a8 <NMI_Handler+0x4>

080005ac <HardFault_Handler>:

/**
  * @brief This function handles Hard fault interrupt.
  */
void HardFault_Handler(void)
{
 80005ac:	b480      	push	{r7}
 80005ae:	af00      	add	r7, sp, #0
  /* USER CODE BEGIN HardFault_IRQn 0 */

  /* USER CODE END HardFault_IRQn 0 */
  while (1)
 80005b0:	bf00      	nop
 80005b2:	e7fd      	b.n	80005b0 <HardFault_Handler+0x4>

080005b4 <MemManage_Handler>:

/**
  * @brief This function handles Memory management fault.
  */
void MemManage_Handler(void)
{
 80005b4:	b480      	push	{r7}
 80005b6:	af00      	add	r7, sp, #0
  /* USER CODE BEGIN MemoryManagement_IRQn 0 */

  /* USER CODE END MemoryManagement_IRQn 0 */
  while (1)
 80005b8:	bf00      	nop
 80005ba:	e7fd      	b.n	80005b8 <MemManage_Handler+0x4>

080005bc <BusFault_Handler>:

/**
  * @brief This function handles Pre-fetch fault, memory access fault.
  */
void BusFault_Handler(void)
{
 80005bc:	b480      	push	{r7}
 80005be:	af00      	add	r7, sp, #0
  /* USER CODE BEGIN BusFault_IRQn 0 */

  /* USER CODE END BusFault_IRQn 0 */
  while (1)
 80005c0:	bf00      	nop
 80005c2:	e7fd      	b.n	80005c0 <BusFault_Handler+0x4>

080005c4 <UsageFault_Handler>:

/**
  * @brief This function handles Undefined instruction or illegal state.
  */
void UsageFault_Handler(void)
{
 80005c4:	b480      	push	{r7}
 80005c6:	af00      	add	r7, sp, #0
  /* USER CODE BEGIN UsageFault_IRQn 0 */

  /* USER CODE END UsageFault_IRQn 0 */
  while (1)
 80005c8:	bf00      	nop
 80005ca:	e7fd      	b.n	80005c8 <UsageFault_Handler+0x4>

080005cc <SVC_Handler>:

/**
  * @brief This function handles System service call via SWI instruction.
  */
void SVC_Handler(void)
{
 80005cc:	b480      	push	{r7}
 80005ce:	af00      	add	r7, sp, #0

  /* USER CODE END SVCall_IRQn 0 */
  /* USER CODE BEGIN SVCall_IRQn 1 */

  /* USER CODE END SVCall_IRQn 1 */
}
 80005d0:	bf00      	nop
 80005d2:	46bd      	mov	sp, r7
 80005d4:	bc80      	pop	{r7}
 80005d6:	4770      	bx	lr

080005d8 <DebugMon_Handler>:

/**
  * @brief This function handles Debug monitor.
  */
void DebugMon_Handler(void)
{
 80005d8:	b480      	push	{r7}
 80005da:	af00      	add	r7, sp, #0

  /* USER CODE END DebugMonitor_IRQn 0 */
  /* USER CODE BEGIN DebugMonitor_IRQn 1 */

  /* USER CODE END DebugMonitor_IRQn 1 */
}
 80005dc:	bf00      	nop
 80005de:	46bd      	mov	sp, r7
 80005e0:	bc80      	pop	{r7}
 80005e2:	4770      	bx	lr

080005e4 <PendSV_Handler>:

/**
  * @brief This function handles Pendable request for system service.
  */
void PendSV_Handler(void)
{
 80005e4:	b480      	push	{r7}
 80005e6:	af00      	add	r7, sp, #0

  /* USER CODE END PendSV_IRQn 0 */
  /* USER CODE BEGIN PendSV_IRQn 1 */

  /* USER CODE END PendSV_IRQn 1 */
}
 80005e8:	bf00      	nop
 80005ea:	46bd      	mov	sp, r7
 80005ec:	bc80      	pop	{r7}
 80005ee:	4770      	bx	lr

080005f0 <SysTick_Handler>:

/**
  * @brief This function handles System tick timer.
  */
void SysTick_Handler(void)
{
 80005f0:	b580      	push	{r7, lr}
 80005f2:	af00      	add	r7, sp, #0
  /* USER CODE BEGIN SysTick_IRQn 0 */

  /* USER CODE END SysTick_IRQn 0 */
  HAL_IncTick();
 80005f4:	f000 f83c 	bl	8000670 <HAL_IncTick>
  /* USER CODE BEGIN SysTick_IRQn 1 */

  /* USER CODE END SysTick_IRQn 1 */
}
 80005f8:	bf00      	nop
 80005fa:	bd80      	pop	{r7, pc}

080005fc <OTG_FS_IRQHandler>:

/**
  * @brief This function handles USB On The Go FS global interrupt.
  */
void OTG_FS_IRQHandler(void)
{
 80005fc:	b580      	push	{r7, lr}
 80005fe:	af00      	add	r7, sp, #0
  /* USER CODE BEGIN OTG_FS_IRQn 0 */

  /* USER CODE END OTG_FS_IRQn 0 */
  HAL_HCD_IRQHandler(&hhcd_USB_OTG_FS);
 8000600:	4802      	ldr	r0, [pc, #8]	@ (800060c <OTG_FS_IRQHandler+0x10>)
 8000602:	f000 f847 	bl	8000694 <HAL_HCD_IRQHandler>
  /* USER CODE BEGIN OTG_FS_IRQn 1 */

  /* USER CODE END OTG_FS_IRQn 1 */
}
 8000606:	bf00      	nop
 8000608:	bd80      	pop	{r7, pc}
 800060a:	bf00      	nop
 800060c:	20000020 	.word	0x20000020

08000610 <SystemInit>:
  *         configuration.
  * @param  None
  * @retval None
  */
void SystemInit(void)
{
 8000610:	b480      	push	{r7}
 8000612:	af00      	add	r7, sp, #0

  /* Configure the Vector Table location -------------------------------------*/
#if defined(USER_VECT_TAB_ADDRESS)
  SCB->VTOR = VECT_TAB_BASE_ADDRESS | VECT_TAB_OFFSET; /* Vector Table Relocation in Internal SRAM */
#endif /* USER_VECT_TAB_ADDRESS */
}
 8000614:	bf00      	nop
 8000616:	46bd      	mov	sp, r7
 8000618:	bc80      	pop	{r7}
 800061a:	4770      	bx	lr

0800061c <Reset_Handler>:

    .section  .text.Reset_Handler
  .weak  Reset_Handler
  .type  Reset_Handler, %function
Reset_Handler: 
  ldr   sp, =_estack       /* set stack pointer */
 800061c:	f8df d034 	ldr.w	sp, [pc, #52]	@ 8000654 <LoopFillZerobss+0xe>

/* Call the clock system initialization function.*/
  bl  SystemInit   
 8000620:	f7ff fff6 	bl	8000610 <SystemInit>
 
/* Copy the data segment initializers from flash to SRAM */  
  ldr r0, =_sdata
 8000624:	480c      	ldr	r0, [pc, #48]	@ (8000658 <LoopFillZerobss+0x12>)
  ldr r1, =_edata
 8000626:	490d      	ldr	r1, [pc, #52]	@ (800065c <LoopFillZerobss+0x16>)
  ldr r2, =_sidata
 8000628:	4a0d      	ldr	r2, [pc, #52]	@ (8000660 <LoopFillZerobss+0x1a>)
  movs r3, #0
 800062a:	2300      	movs	r3, #0
  b LoopCopyDataInit
 800062c:	e002      	b.n	8000634 <LoopCopyDataInit>

0800062e <CopyDataInit>:

CopyDataInit:
  ldr r4, [r2, r3]
 800062e:	58d4      	ldr	r4, [r2, r3]
  str r4, [r0, r3]
 8000630:	50c4      	str	r4, [r0, r3]
  adds r3, r3, #4
 8000632:	3304      	adds	r3, #4

08000634 <LoopCopyDataInit>:

LoopCopyDataInit:
  adds r4, r0, r3
 8000634:	18c4      	adds	r4, r0, r3
  cmp r4, r1
 8000636:	428c      	cmp	r4, r1
  bcc CopyDataInit
 8000638:	d3f9      	bcc.n	800062e <CopyDataInit>
  
/* Zero fill the bss segment. */
  ldr r2, =_sbss
 800063a:	4a0a      	ldr	r2, [pc, #40]	@ (8000664 <LoopFillZerobss+0x1e>)
  ldr r4, =_ebss
 800063c:	4c0a      	ldr	r4, [pc, #40]	@ (8000668 <LoopFillZerobss+0x22>)
  movs r3, #0
 800063e:	2300      	movs	r3, #0
  b LoopFillZerobss
 8000640:	e001      	b.n	8000646 <LoopFillZerobss>

08000642 <FillZerobss>:

FillZerobss:
  str  r3, [r2]
 8000642:	6013      	str	r3, [r2, #0]
  adds r2, r2, #4
 8000644:	3204      	adds	r2, #4

08000646 <LoopFillZerobss>:

LoopFillZerobss:
  cmp r2, r4
 8000646:	42a2      	cmp	r2, r4
  bcc FillZerobss
 8000648:	d3fb      	bcc.n	8000642 <FillZerobss>
  
/* Call static constructors */
    bl __libc_init_array
 800064a:	f002 f847 	bl	80026dc <__libc_init_array>
/* Call the application's entry point.*/
  bl  main
 800064e:	f7ff ff8f 	bl	8000570 <main>
  bx  lr    
 8000652:	4770      	bx	lr
  ldr   sp, =_estack       /* set stack pointer */
 8000654:	20030000 	.word	0x20030000
  ldr r0, =_sdata
 8000658:	20000000 	.word	0x20000000
  ldr r1, =_edata
 800065c:	20000004 	.word	0x20000004
  ldr r2, =_sidata
 8000660:	08002744 	.word	0x08002744
  ldr r2, =_sbss
 8000664:	20000004 	.word	0x20000004
  ldr r4, =_ebss
 8000668:	20000404 	.word	0x20000404

0800066c <ADC_IRQHandler>:
 * @retval None       
*/
    .section  .text.Default_Handler,"ax",%progbits
Default_Handler:
Infinite_Loop:
  b  Infinite_Loop
 800066c:	e7fe      	b.n	800066c <ADC_IRQHandler>
	...

08000670 <HAL_IncTick>:
 * @note This function is declared as __weak to be overwritten in case of other 
  *      implementations in user file.
  * @retval None
  */
__weak void HAL_IncTick(void)
{
 8000670:	b480      	push	{r7}
 8000672:	af00      	add	r7, sp, #0
  uwTick += uwTickFreq;
 8000674:	4b05      	ldr	r3, [pc, #20]	@ (800068c <HAL_IncTick+0x1c>)
 8000676:	781b      	ldrb	r3, [r3, #0]
 8000678:	461a      	mov	r2, r3
 800067a:	4b05      	ldr	r3, [pc, #20]	@ (8000690 <HAL_IncTick+0x20>)
 800067c:	681b      	ldr	r3, [r3, #0]
 800067e:	4413      	add	r3, r2
 8000680:	4a03      	ldr	r2, [pc, #12]	@ (8000690 <HAL_IncTick+0x20>)
 8000682:	6013      	str	r3, [r2, #0]
}
 8000684:	bf00      	nop
 8000686:	46bd      	mov	sp, r7
 8000688:	bc80      	pop	{r7}
 800068a:	4770      	bx	lr
 800068c:	20000000 	.word	0x20000000
 8000690:	20000400 	.word	0x20000400

08000694 <HAL_HCD_IRQHandler>:
  * @brief  Handle HCD interrupt request.
  * @param  hhcd HCD handle
  * @retval None
  */
void HAL_HCD_IRQHandler(HCD_HandleTypeDef *hhcd)
{
 8000694:	b580      	push	{r7, lr}
 8000696:	b086      	sub	sp, #24
 8000698:	af00      	add	r7, sp, #0
 800069a:	6078      	str	r0, [r7, #4]
  USB_OTG_GlobalTypeDef *USBx = hhcd->Instance;
 800069c:	687b      	ldr	r3, [r7, #4]
 800069e:	681b      	ldr	r3, [r3, #0]
 80006a0:	613b      	str	r3, [r7, #16]
  uint32_t USBx_BASE = (uint32_t)USBx;
 80006a2:	693b      	ldr	r3, [r7, #16]
 80006a4:	60fb      	str	r3, [r7, #12]
  uint32_t i;
  uint32_t interrupt;

  /* Ensure that we are in device mode */
  if (USB_GetMode(hhcd->Instance) == USB_OTG_MODE_HOST)
 80006a6:	687b      	ldr	r3, [r7, #4]
 80006a8:	681b      	ldr	r3, [r3, #0]
 80006aa:	4618      	mov	r0, r3
 80006ac:	f001 fe9d 	bl	80023ea <USB_GetMode>
 80006b0:	4603      	mov	r3, r0
 80006b2:	2b01      	cmp	r3, #1
 80006b4:	f040 80fb 	bne.w	80008ae <HAL_HCD_IRQHandler+0x21a>
  {
    /* Avoid spurious interrupt */
    if (__HAL_HCD_IS_INVALID_INTERRUPT(hhcd))
 80006b8:	687b      	ldr	r3, [r7, #4]
 80006ba:	681b      	ldr	r3, [r3, #0]
 80006bc:	4618      	mov	r0, r3
 80006be:	f001 fe62 	bl	8002386 <USB_ReadInterrupts>
 80006c2:	4603      	mov	r3, r0
 80006c4:	2b00      	cmp	r3, #0
 80006c6:	f000 80f1 	beq.w	80008ac <HAL_HCD_IRQHandler+0x218>
    {
      return;
    }

    if (__HAL_HCD_GET_FLAG(hhcd, USB_OTG_GINTSTS_PXFR_INCOMPISOOUT))
 80006ca:	687b      	ldr	r3, [r7, #4]
 80006cc:	681b      	ldr	r3, [r3, #0]
 80006ce:	4618      	mov	r0, r3
 80006d0:	f001 fe59 	bl	8002386 <USB_ReadInterrupts>
 80006d4:	4603      	mov	r3, r0
 80006d6:	f403 1300 	and.w	r3, r3, #2097152	@ 0x200000
 80006da:	f5b3 1f00 	cmp.w	r3, #2097152	@ 0x200000
 80006de:	d104      	bne.n	80006ea <HAL_HCD_IRQHandler+0x56>
    {
      /* Incorrect mode, acknowledge the interrupt */
      __HAL_HCD_CLEAR_FLAG(hhcd, USB_OTG_GINTSTS_PXFR_INCOMPISOOUT);
 80006e0:	687b      	ldr	r3, [r7, #4]
 80006e2:	681b      	ldr	r3, [r3, #0]
 80006e4:	f44f 1200 	mov.w	r2, #2097152	@ 0x200000
 80006e8:	615a      	str	r2, [r3, #20]
    }

    if (__HAL_HCD_GET_FLAG(hhcd, USB_OTG_GINTSTS_IISOIXFR))
 80006ea:	687b      	ldr	r3, [r7, #4]
 80006ec:	681b      	ldr	r3, [r3, #0]
 80006ee:	4618      	mov	r0, r3
 80006f0:	f001 fe49 	bl	8002386 <USB_ReadInterrupts>
 80006f4:	4603      	mov	r3, r0
 80006f6:	f403 1380 	and.w	r3, r3, #1048576	@ 0x100000
 80006fa:	f5b3 1f80 	cmp.w	r3, #1048576	@ 0x100000
 80006fe:	d104      	bne.n	800070a <HAL_HCD_IRQHandler+0x76>
    {
      /* Incorrect mode, acknowledge the interrupt */
      __HAL_HCD_CLEAR_FLAG(hhcd, USB_OTG_GINTSTS_IISOIXFR);
 8000700:	687b      	ldr	r3, [r7, #4]
 8000702:	681b      	ldr	r3, [r3, #0]
 8000704:	f44f 1280 	mov.w	r2, #1048576	@ 0x100000
 8000708:	615a      	str	r2, [r3, #20]
    }

    if (__HAL_HCD_GET_FLAG(hhcd, USB_OTG_GINTSTS_PTXFE))
 800070a:	687b      	ldr	r3, [r7, #4]
 800070c:	681b      	ldr	r3, [r3, #0]
 800070e:	4618      	mov	r0, r3
 8000710:	f001 fe39 	bl	8002386 <USB_ReadInterrupts>
 8000714:	4603      	mov	r3, r0
 8000716:	f003 6380 	and.w	r3, r3, #67108864	@ 0x4000000
 800071a:	f1b3 6f80 	cmp.w	r3, #67108864	@ 0x4000000
 800071e:	d104      	bne.n	800072a <HAL_HCD_IRQHandler+0x96>
    {
      /* Incorrect mode, acknowledge the interrupt */
      __HAL_HCD_CLEAR_FLAG(hhcd, USB_OTG_GINTSTS_PTXFE);
 8000720:	687b      	ldr	r3, [r7, #4]
 8000722:	681b      	ldr	r3, [r3, #0]
 8000724:	f04f 6280 	mov.w	r2, #67108864	@ 0x4000000
 8000728:	615a      	str	r2, [r3, #20]
    }

    if (__HAL_HCD_GET_FLAG(hhcd, USB_OTG_GINTSTS_MMIS))
 800072a:	687b      	ldr	r3, [r7, #4]
 800072c:	681b      	ldr	r3, [r3, #0]
 800072e:	4618      	mov	r0, r3
 8000730:	f001 fe29 	bl	8002386 <USB_ReadInterrupts>
 8000734:	4603      	mov	r3, r0
 8000736:	f003 0302 	and.w	r3, r3, #2
 800073a:	2b02      	cmp	r3, #2
 800073c:	d103      	bne.n	8000746 <HAL_HCD_IRQHandler+0xb2>
    {
      /* Incorrect mode, acknowledge the interrupt */
      __HAL_HCD_CLEAR_FLAG(hhcd, USB_OTG_GINTSTS_MMIS);
 800073e:	687b      	ldr	r3, [r7, #4]
 8000740:	681b      	ldr	r3, [r3, #0]
 8000742:	2202      	movs	r2, #2
 8000744:	615a      	str	r2, [r3, #20]
    }

    /* Handle Host Disconnect Interrupts */
    if (__HAL_HCD_GET_FLAG(hhcd, USB_OTG_GINTSTS_DISCINT))
 8000746:	687b      	ldr	r3, [r7, #4]
 8000748:	681b      	ldr	r3, [r3, #0]
 800074a:	4618      	mov	r0, r3
 800074c:	f001 fe1b 	bl	8002386 <USB_ReadInterrupts>
 8000750:	4603      	mov	r3, r0
 8000752:	f003 5300 	and.w	r3, r3, #536870912	@ 0x20000000
 8000756:	f1b3 5f00 	cmp.w	r3, #536870912	@ 0x20000000
 800075a:	d120      	bne.n	800079e <HAL_HCD_IRQHandler+0x10a>
    {
      __HAL_HCD_CLEAR_FLAG(hhcd, USB_OTG_GINTSTS_DISCINT);
 800075c:	687b      	ldr	r3, [r7, #4]
 800075e:	681b      	ldr	r3, [r3, #0]
 8000760:	f04f 5200 	mov.w	r2, #536870912	@ 0x20000000
 8000764:	615a      	str	r2, [r3, #20]

      if ((USBx_HPRT0 & USB_OTG_HPRT_PCSTS) == 0U)
 8000766:	68fb      	ldr	r3, [r7, #12]
 8000768:	f503 6388 	add.w	r3, r3, #1088	@ 0x440
 800076c:	681b      	ldr	r3, [r3, #0]
 800076e:	f003 0301 	and.w	r3, r3, #1
 8000772:	2b00      	cmp	r3, #0
 8000774:	d113      	bne.n	800079e <HAL_HCD_IRQHandler+0x10a>
      {
        /* Flush USB Fifo */
        (void)USB_FlushTxFifo(USBx, 0x10U);
 8000776:	2110      	movs	r1, #16
 8000778:	6938      	ldr	r0, [r7, #16]
 800077a:	f001 fd4f 	bl	800221c <USB_FlushTxFifo>
        (void)USB_FlushRxFifo(USBx);
 800077e:	6938      	ldr	r0, [r7, #16]
 8000780:	f001 fd7d 	bl	800227e <USB_FlushRxFifo>

        if (hhcd->Init.phy_itface == USB_OTG_EMBEDDED_PHY)
 8000784:	687b      	ldr	r3, [r7, #4]
 8000786:	7a5b      	ldrb	r3, [r3, #9]
 8000788:	2b02      	cmp	r3, #2
 800078a:	d105      	bne.n	8000798 <HAL_HCD_IRQHandler+0x104>
        {
          /* Restore FS Clock */
          (void)USB_InitFSLSPClkSel(hhcd->Instance, HCFG_48_MHZ);
 800078c:	687b      	ldr	r3, [r7, #4]
 800078e:	681b      	ldr	r3, [r3, #0]
 8000790:	2101      	movs	r1, #1
 8000792:	4618      	mov	r0, r3
 8000794:	f001 fe36 	bl	8002404 <USB_InitFSLSPClkSel>

        /* Handle Host Port Disconnect Interrupt */
#if (USE_HAL_HCD_REGISTER_CALLBACKS == 1U)
        hhcd->DisconnectCallback(hhcd);
#else
        HAL_HCD_Disconnect_Callback(hhcd);
 8000798:	6878      	ldr	r0, [r7, #4]
 800079a:	f000 f89d 	bl	80008d8 <HAL_HCD_Disconnect_Callback>
#endif /* USE_HAL_HCD_REGISTER_CALLBACKS */
      }
    }

    /* Handle Host Port Interrupts */
    if (__HAL_HCD_GET_FLAG(hhcd, USB_OTG_GINTSTS_HPRTINT))
 800079e:	687b      	ldr	r3, [r7, #4]
 80007a0:	681b      	ldr	r3, [r3, #0]
 80007a2:	4618      	mov	r0, r3
 80007a4:	f001 fdef 	bl	8002386 <USB_ReadInterrupts>
 80007a8:	4603      	mov	r3, r0
 80007aa:	f003 7380 	and.w	r3, r3, #16777216	@ 0x1000000
 80007ae:	f1b3 7f80 	cmp.w	r3, #16777216	@ 0x1000000
 80007b2:	d102      	bne.n	80007ba <HAL_HCD_IRQHandler+0x126>
    {
      HCD_Port_IRQHandler(hhcd);
 80007b4:	6878      	ldr	r0, [r7, #4]
 80007b6:	f001 fcbe 	bl	8002136 <HCD_Port_IRQHandler>
    }

    /* Handle Host SOF Interrupt */
    if (__HAL_HCD_GET_FLAG(hhcd, USB_OTG_GINTSTS_SOF))
 80007ba:	687b      	ldr	r3, [r7, #4]
 80007bc:	681b      	ldr	r3, [r3, #0]
 80007be:	4618      	mov	r0, r3
 80007c0:	f001 fde1 	bl	8002386 <USB_ReadInterrupts>
 80007c4:	4603      	mov	r3, r0
 80007c6:	f003 0308 	and.w	r3, r3, #8
 80007ca:	2b08      	cmp	r3, #8
 80007cc:	d106      	bne.n	80007dc <HAL_HCD_IRQHandler+0x148>
    {
#if (USE_HAL_HCD_REGISTER_CALLBACKS == 1U)
      hhcd->SOFCallback(hhcd);
#else
      HAL_HCD_SOF_Callback(hhcd);
 80007ce:	6878      	ldr	r0, [r7, #4]
 80007d0:	f000 f870 	bl	80008b4 <HAL_HCD_SOF_Callback>
#endif /* USE_HAL_HCD_REGISTER_CALLBACKS */

      __HAL_HCD_CLEAR_FLAG(hhcd, USB_OTG_GINTSTS_SOF);
 80007d4:	687b      	ldr	r3, [r7, #4]
 80007d6:	681b      	ldr	r3, [r3, #0]
 80007d8:	2208      	movs	r2, #8
 80007da:	615a      	str	r2, [r3, #20]
    }

    /* Handle Host channel Interrupt */
    if (__HAL_HCD_GET_FLAG(hhcd, USB_OTG_GINTSTS_HCINT))
 80007dc:	687b      	ldr	r3, [r7, #4]
 80007de:	681b      	ldr	r3, [r3, #0]
 80007e0:	4618      	mov	r0, r3
 80007e2:	f001 fdd0 	bl	8002386 <USB_ReadInterrupts>
 80007e6:	4603      	mov	r3, r0
 80007e8:	f003 7300 	and.w	r3, r3, #33554432	@ 0x2000000
 80007ec:	f1b3 7f00 	cmp.w	r3, #33554432	@ 0x2000000
 80007f0:	d139      	bne.n	8000866 <HAL_HCD_IRQHandler+0x1d2>
    {
      interrupt = USB_HC_ReadInterrupt(hhcd->Instance);
 80007f2:	687b      	ldr	r3, [r7, #4]
 80007f4:	681b      	ldr	r3, [r3, #0]
 80007f6:	4618      	mov	r0, r3
 80007f8:	f001 fe40 	bl	800247c <USB_HC_ReadInterrupt>
 80007fc:	60b8      	str	r0, [r7, #8]
      for (i = 0U; i < hhcd->Init.Host_channels; i++)
 80007fe:	2300      	movs	r3, #0
 8000800:	617b      	str	r3, [r7, #20]
 8000802:	e025      	b.n	8000850 <HAL_HCD_IRQHandler+0x1bc>
      {
        if ((interrupt & (1UL << (i & 0xFU))) != 0U)
 8000804:	697b      	ldr	r3, [r7, #20]
 8000806:	f003 030f 	and.w	r3, r3, #15
 800080a:	68ba      	ldr	r2, [r7, #8]
 800080c:	fa22 f303 	lsr.w	r3, r2, r3
 8000810:	f003 0301 	and.w	r3, r3, #1
 8000814:	2b00      	cmp	r3, #0
 8000816:	d018      	beq.n	800084a <HAL_HCD_IRQHandler+0x1b6>
        {
          if ((USBx_HC(i)->HCCHAR & USB_OTG_HCCHAR_EPDIR) == USB_OTG_HCCHAR_EPDIR)
 8000818:	697b      	ldr	r3, [r7, #20]
 800081a:	015a      	lsls	r2, r3, #5
 800081c:	68fb      	ldr	r3, [r7, #12]
 800081e:	4413      	add	r3, r2
 8000820:	f503 63a0 	add.w	r3, r3, #1280	@ 0x500
 8000824:	681b      	ldr	r3, [r3, #0]
 8000826:	f403 4300 	and.w	r3, r3, #32768	@ 0x8000
 800082a:	f5b3 4f00 	cmp.w	r3, #32768	@ 0x8000
 800082e:	d106      	bne.n	800083e <HAL_HCD_IRQHandler+0x1aa>
          {
            HCD_HC_IN_IRQHandler(hhcd, (uint8_t)i);
 8000830:	697b      	ldr	r3, [r7, #20]
 8000832:	b2db      	uxtb	r3, r3
 8000834:	4619      	mov	r1, r3
 8000836:	6878      	ldr	r0, [r7, #4]
 8000838:	f000 f876 	bl	8000928 <HCD_HC_IN_IRQHandler>
 800083c:	e005      	b.n	800084a <HAL_HCD_IRQHandler+0x1b6>
          }
          else
          {
            HCD_HC_OUT_IRQHandler(hhcd, (uint8_t)i);
 800083e:	697b      	ldr	r3, [r7, #20]
 8000840:	b2db      	uxtb	r3, r3
 8000842:	4619      	mov	r1, r3
 8000844:	6878      	ldr	r0, [r7, #4]
 8000846:	f000 fed8 	bl	80015fa <HCD_HC_OUT_IRQHandler>
      for (i = 0U; i < hhcd->Init.Host_channels; i++)
 800084a:	697b      	ldr	r3, [r7, #20]
 800084c:	3301      	adds	r3, #1
 800084e:	617b      	str	r3, [r7, #20]
 8000850:	687b      	ldr	r3, [r7, #4]
 8000852:	795b      	ldrb	r3, [r3, #5]
 8000854:	461a      	mov	r2, r3
 8000856:	697b      	ldr	r3, [r7, #20]
 8000858:	4293      	cmp	r3, r2
 800085a:	d3d3      	bcc.n	8000804 <HAL_HCD_IRQHandler+0x170>
          }
        }
      }
      __HAL_HCD_CLEAR_FLAG(hhcd, USB_OTG_GINTSTS_HCINT);
 800085c:	687b      	ldr	r3, [r7, #4]
 800085e:	681b      	ldr	r3, [r3, #0]
 8000860:	f04f 7200 	mov.w	r2, #33554432	@ 0x2000000
 8000864:	615a      	str	r2, [r3, #20]
    }

    /* Handle Rx Queue Level Interrupts */
    if ((__HAL_HCD_GET_FLAG(hhcd, USB_OTG_GINTSTS_RXFLVL)) != 0U)
 8000866:	687b      	ldr	r3, [r7, #4]
 8000868:	681b      	ldr	r3, [r3, #0]
 800086a:	4618      	mov	r0, r3
 800086c:	f001 fd8b 	bl	8002386 <USB_ReadInterrupts>
 8000870:	4603      	mov	r3, r0
 8000872:	f003 0310 	and.w	r3, r3, #16
 8000876:	2b10      	cmp	r3, #16
 8000878:	d101      	bne.n	800087e <HAL_HCD_IRQHandler+0x1ea>
 800087a:	2301      	movs	r3, #1
 800087c:	e000      	b.n	8000880 <HAL_HCD_IRQHandler+0x1ec>
 800087e:	2300      	movs	r3, #0
 8000880:	2b00      	cmp	r3, #0
 8000882:	d014      	beq.n	80008ae <HAL_HCD_IRQHandler+0x21a>
    {
      USB_MASK_INTERRUPT(hhcd->Instance, USB_OTG_GINTSTS_RXFLVL);
 8000884:	687b      	ldr	r3, [r7, #4]
 8000886:	681b      	ldr	r3, [r3, #0]
 8000888:	699a      	ldr	r2, [r3, #24]
 800088a:	687b      	ldr	r3, [r7, #4]
 800088c:	681b      	ldr	r3, [r3, #0]
 800088e:	f022 0210 	bic.w	r2, r2, #16
 8000892:	619a      	str	r2, [r3, #24]

      HCD_RXQLVL_IRQHandler(hhcd);
 8000894:	6878      	ldr	r0, [r7, #4]
 8000896:	f001 fb6f 	bl	8001f78 <HCD_RXQLVL_IRQHandler>

      USB_UNMASK_INTERRUPT(hhcd->Instance, USB_OTG_GINTSTS_RXFLVL);
 800089a:	687b      	ldr	r3, [r7, #4]
 800089c:	681b      	ldr	r3, [r3, #0]
 800089e:	699a      	ldr	r2, [r3, #24]
 80008a0:	687b      	ldr	r3, [r7, #4]
 80008a2:	681b      	ldr	r3, [r3, #0]
 80008a4:	f042 0210 	orr.w	r2, r2, #16
 80008a8:	619a      	str	r2, [r3, #24]
 80008aa:	e000      	b.n	80008ae <HAL_HCD_IRQHandler+0x21a>
      return;
 80008ac:	bf00      	nop
    }
  }
}
 80008ae:	3718      	adds	r7, #24
 80008b0:	46bd      	mov	sp, r7
 80008b2:	bd80      	pop	{r7, pc}

080008b4 <HAL_HCD_SOF_Callback>:
  * @brief  SOF callback.
  * @param  hhcd HCD handle
  * @retval None
  */
__weak void HAL_HCD_SOF_Callback(HCD_HandleTypeDef *hhcd)
{
 80008b4:	b480      	push	{r7}
 80008b6:	b083      	sub	sp, #12
 80008b8:	af00      	add	r7, sp, #0
 80008ba:	6078      	str	r0, [r7, #4]
  UNUSED(hhcd);

  /* NOTE : This function should not be modified, when the callback is needed,
            the HAL_HCD_SOF_Callback could be implemented in the user file
   */
}
 80008bc:	bf00      	nop
 80008be:	370c      	adds	r7, #12
 80008c0:	46bd      	mov	sp, r7
 80008c2:	bc80      	pop	{r7}
 80008c4:	4770      	bx	lr

080008c6 <HAL_HCD_Connect_Callback>:
  * @brief Connection Event callback.
  * @param  hhcd HCD handle
  * @retval None
  */
__weak void HAL_HCD_Connect_Callback(HCD_HandleTypeDef *hhcd)
{
 80008c6:	b480      	push	{r7}
 80008c8:	b083      	sub	sp, #12
 80008ca:	af00      	add	r7, sp, #0
 80008cc:	6078      	str	r0, [r7, #4]
  UNUSED(hhcd);

  /* NOTE : This function should not be modified, when the callback is needed,
            the HAL_HCD_Connect_Callback could be implemented in the user file
   */
}
 80008ce:	bf00      	nop
 80008d0:	370c      	adds	r7, #12
 80008d2:	46bd      	mov	sp, r7
 80008d4:	bc80      	pop	{r7}
 80008d6:	4770      	bx	lr

080008d8 <HAL_HCD_Disconnect_Callback>:
  * @brief  Disconnection Event callback.
  * @param  hhcd HCD handle
  * @retval None
  */
__weak void HAL_HCD_Disconnect_Callback(HCD_HandleTypeDef *hhcd)
{
 80008d8:	b480      	push	{r7}
 80008da:	b083      	sub	sp, #12
 80008dc:	af00      	add	r7, sp, #0
 80008de:	6078      	str	r0, [r7, #4]
  UNUSED(hhcd);

  /* NOTE : This function should not be modified, when the callback is needed,
            the HAL_HCD_Disconnect_Callback could be implemented in the user file
   */
}
 80008e0:	bf00      	nop
 80008e2:	370c      	adds	r7, #12
 80008e4:	46bd      	mov	sp, r7
 80008e6:	bc80      	pop	{r7}
 80008e8:	4770      	bx	lr

080008ea <HAL_HCD_PortEnabled_Callback>:
  * @brief  Port Enabled  Event callback.
  * @param  hhcd HCD handle
  * @retval None
  */
__weak void HAL_HCD_PortEnabled_Callback(HCD_HandleTypeDef *hhcd)
{
 80008ea:	b480      	push	{r7}
 80008ec:	b083      	sub	sp, #12
 80008ee:	af00      	add	r7, sp, #0
 80008f0:	6078      	str	r0, [r7, #4]
  UNUSED(hhcd);

  /* NOTE : This function should not be modified, when the callback is needed,
            the HAL_HCD_Disconnect_Callback could be implemented in the user file
   */
}
 80008f2:	bf00      	nop
 80008f4:	370c      	adds	r7, #12
 80008f6:	46bd      	mov	sp, r7
 80008f8:	bc80      	pop	{r7}
 80008fa:	4770      	bx	lr

080008fc <HAL_HCD_PortDisabled_Callback>:
  * @brief  Port Disabled  Event callback.
  * @param  hhcd HCD handle
  * @retval None
  */
__weak void HAL_HCD_PortDisabled_Callback(HCD_HandleTypeDef *hhcd)
{
 80008fc:	b480      	push	{r7}
 80008fe:	b083      	sub	sp, #12
 8000900:	af00      	add	r7, sp, #0
 8000902:	6078      	str	r0, [r7, #4]
  UNUSED(hhcd);

  /* NOTE : This function should not be modified, when the callback is needed,
            the HAL_HCD_Disconnect_Callback could be implemented in the user file
   */
}
 8000904:	bf00      	nop
 8000906:	370c      	adds	r7, #12
 8000908:	46bd      	mov	sp, r7
 800090a:	bc80      	pop	{r7}
 800090c:	4770      	bx	lr

0800090e <HAL_HCD_HC_NotifyURBChange_Callback>:
  *            URB_ERROR/
  *            URB_STALL/
  * @retval None
  */
__weak void HAL_HCD_HC_NotifyURBChange_Callback(HCD_HandleTypeDef *hhcd, uint8_t chnum, HCD_URBStateTypeDef urb_state)
{
 800090e:	b480      	push	{r7}
 8000910:	b083      	sub	sp, #12
 8000912:	af00      	add	r7, sp, #0
 8000914:	6078      	str	r0, [r7, #4]
 8000916:	460b      	mov	r3, r1
 8000918:	70fb      	strb	r3, [r7, #3]
 800091a:	4613      	mov	r3, r2
 800091c:	70bb      	strb	r3, [r7, #2]
  UNUSED(urb_state);

  /* NOTE : This function should not be modified, when the callback is needed,
            the HAL_HCD_HC_NotifyURBChange_Callback could be implemented in the user file
   */
}
 800091e:	bf00      	nop
 8000920:	370c      	adds	r7, #12
 8000922:	46bd      	mov	sp, r7
 8000924:	bc80      	pop	{r7}
 8000926:	4770      	bx	lr

08000928 <HCD_HC_IN_IRQHandler>:
  * @param  chnum Channel number.
  *         This parameter can be a value from 1 to 15
  * @retval none
  */
static void HCD_HC_IN_IRQHandler(HCD_HandleTypeDef *hhcd, uint8_t chnum)
{
 8000928:	b580      	push	{r7, lr}
 800092a:	b086      	sub	sp, #24
 800092c:	af00      	add	r7, sp, #0
 800092e:	6078      	str	r0, [r7, #4]
 8000930:	460b      	mov	r3, r1
 8000932:	70fb      	strb	r3, [r7, #3]
  const USB_OTG_GlobalTypeDef *USBx = hhcd->Instance;
 8000934:	687b      	ldr	r3, [r7, #4]
 8000936:	681b      	ldr	r3, [r3, #0]
 8000938:	617b      	str	r3, [r7, #20]
  uint32_t USBx_BASE = (uint32_t)USBx;
 800093a:	697b      	ldr	r3, [r7, #20]
 800093c:	613b      	str	r3, [r7, #16]
  uint32_t tmpreg;

  if (__HAL_HCD_GET_CH_FLAG(hhcd, chnum, USB_OTG_HCINT_AHBERR))
 800093e:	687b      	ldr	r3, [r7, #4]
 8000940:	681b      	ldr	r3, [r3, #0]
 8000942:	78fa      	ldrb	r2, [r7, #3]
 8000944:	4611      	mov	r1, r2
 8000946:	4618      	mov	r0, r3
 8000948:	f001 fd2f 	bl	80023aa <USB_ReadChInterrupts>
 800094c:	4603      	mov	r3, r0
 800094e:	f003 0304 	and.w	r3, r3, #4
 8000952:	2b04      	cmp	r3, #4
 8000954:	d11a      	bne.n	800098c <HCD_HC_IN_IRQHandler+0x64>
  {
    __HAL_HCD_CLEAR_HC_INT(chnum, USB_OTG_HCINT_AHBERR);
 8000956:	78fb      	ldrb	r3, [r7, #3]
 8000958:	015a      	lsls	r2, r3, #5
 800095a:	693b      	ldr	r3, [r7, #16]
 800095c:	4413      	add	r3, r2
 800095e:	f503 63a0 	add.w	r3, r3, #1280	@ 0x500
 8000962:	461a      	mov	r2, r3
 8000964:	2304      	movs	r3, #4
 8000966:	6093      	str	r3, [r2, #8]
    hhcd->hc[chnum].state = HC_XACTERR;
 8000968:	78fa      	ldrb	r2, [r7, #3]
 800096a:	6879      	ldr	r1, [r7, #4]
 800096c:	4613      	mov	r3, r2
 800096e:	011b      	lsls	r3, r3, #4
 8000970:	1a9b      	subs	r3, r3, r2
 8000972:	009b      	lsls	r3, r3, #2
 8000974:	440b      	add	r3, r1
 8000976:	334d      	adds	r3, #77	@ 0x4d
 8000978:	2207      	movs	r2, #7
 800097a:	701a      	strb	r2, [r3, #0]
    (void)USB_HC_Halt(hhcd->Instance, chnum);
 800097c:	687b      	ldr	r3, [r7, #4]
 800097e:	681b      	ldr	r3, [r3, #0]
 8000980:	78fa      	ldrb	r2, [r7, #3]
 8000982:	4611      	mov	r1, r2
 8000984:	4618      	mov	r0, r3
 8000986:	f001 fd89 	bl	800249c <USB_HC_Halt>
 800098a:	e09e      	b.n	8000aca <HCD_HC_IN_IRQHandler+0x1a2>
  }
  else if (__HAL_HCD_GET_CH_FLAG(hhcd, chnum, USB_OTG_HCINT_BBERR))
 800098c:	687b      	ldr	r3, [r7, #4]
 800098e:	681b      	ldr	r3, [r3, #0]
 8000990:	78fa      	ldrb	r2, [r7, #3]
 8000992:	4611      	mov	r1, r2
 8000994:	4618      	mov	r0, r3
 8000996:	f001 fd08 	bl	80023aa <USB_ReadChInterrupts>
 800099a:	4603      	mov	r3, r0
 800099c:	f403 7380 	and.w	r3, r3, #256	@ 0x100
 80009a0:	f5b3 7f80 	cmp.w	r3, #256	@ 0x100
 80009a4:	d11b      	bne.n	80009de <HCD_HC_IN_IRQHandler+0xb6>
  {
    __HAL_HCD_CLEAR_HC_INT(chnum, USB_OTG_HCINT_BBERR);
 80009a6:	78fb      	ldrb	r3, [r7, #3]
 80009a8:	015a      	lsls	r2, r3, #5
 80009aa:	693b      	ldr	r3, [r7, #16]
 80009ac:	4413      	add	r3, r2
 80009ae:	f503 63a0 	add.w	r3, r3, #1280	@ 0x500
 80009b2:	461a      	mov	r2, r3
 80009b4:	f44f 7380 	mov.w	r3, #256	@ 0x100
 80009b8:	6093      	str	r3, [r2, #8]
    hhcd->hc[chnum].state = HC_BBLERR;
 80009ba:	78fa      	ldrb	r2, [r7, #3]
 80009bc:	6879      	ldr	r1, [r7, #4]
 80009be:	4613      	mov	r3, r2
 80009c0:	011b      	lsls	r3, r3, #4
 80009c2:	1a9b      	subs	r3, r3, r2
 80009c4:	009b      	lsls	r3, r3, #2
 80009c6:	440b      	add	r3, r1
 80009c8:	334d      	adds	r3, #77	@ 0x4d
 80009ca:	2208      	movs	r2, #8
 80009cc:	701a      	strb	r2, [r3, #0]
    (void)USB_HC_Halt(hhcd->Instance, chnum);
 80009ce:	687b      	ldr	r3, [r7, #4]
 80009d0:	681b      	ldr	r3, [r3, #0]
 80009d2:	78fa      	ldrb	r2, [r7, #3]
 80009d4:	4611      	mov	r1, r2
 80009d6:	4618      	mov	r0, r3
 80009d8:	f001 fd60 	bl	800249c <USB_HC_Halt>
 80009dc:	e075      	b.n	8000aca <HCD_HC_IN_IRQHandler+0x1a2>
  }
  else if (__HAL_HCD_GET_CH_FLAG(hhcd, chnum, USB_OTG_HCINT_STALL))
 80009de:	687b      	ldr	r3, [r7, #4]
 80009e0:	681b      	ldr	r3, [r3, #0]
 80009e2:	78fa      	ldrb	r2, [r7, #3]
 80009e4:	4611      	mov	r1, r2
 80009e6:	4618      	mov	r0, r3
 80009e8:	f001 fcdf 	bl	80023aa <USB_ReadChInterrupts>
 80009ec:	4603      	mov	r3, r0
 80009ee:	f003 0308 	and.w	r3, r3, #8
 80009f2:	2b08      	cmp	r3, #8
 80009f4:	d11a      	bne.n	8000a2c <HCD_HC_IN_IRQHandler+0x104>
  {
    __HAL_HCD_CLEAR_HC_INT(chnum, USB_OTG_HCINT_STALL);
 80009f6:	78fb      	ldrb	r3, [r7, #3]
 80009f8:	015a      	lsls	r2, r3, #5
 80009fa:	693b      	ldr	r3, [r7, #16]
 80009fc:	4413      	add	r3, r2
 80009fe:	f503 63a0 	add.w	r3, r3, #1280	@ 0x500
 8000a02:	461a      	mov	r2, r3
 8000a04:	2308      	movs	r3, #8
 8000a06:	6093      	str	r3, [r2, #8]
    hhcd->hc[chnum].state = HC_STALL;
 8000a08:	78fa      	ldrb	r2, [r7, #3]
 8000a0a:	6879      	ldr	r1, [r7, #4]
 8000a0c:	4613      	mov	r3, r2
 8000a0e:	011b      	lsls	r3, r3, #4
 8000a10:	1a9b      	subs	r3, r3, r2
 8000a12:	009b      	lsls	r3, r3, #2
 8000a14:	440b      	add	r3, r1
 8000a16:	334d      	adds	r3, #77	@ 0x4d
 8000a18:	2206      	movs	r2, #6
 8000a1a:	701a      	strb	r2, [r3, #0]
    (void)USB_HC_Halt(hhcd->Instance, chnum);
 8000a1c:	687b      	ldr	r3, [r7, #4]
 8000a1e:	681b      	ldr	r3, [r3, #0]
 8000a20:	78fa      	ldrb	r2, [r7, #3]
 8000a22:	4611      	mov	r1, r2
 8000a24:	4618      	mov	r0, r3
 8000a26:	f001 fd39 	bl	800249c <USB_HC_Halt>
 8000a2a:	e04e      	b.n	8000aca <HCD_HC_IN_IRQHandler+0x1a2>
  }
  else if (__HAL_HCD_GET_CH_FLAG(hhcd, chnum, USB_OTG_HCINT_DTERR))
 8000a2c:	687b      	ldr	r3, [r7, #4]
 8000a2e:	681b      	ldr	r3, [r3, #0]
 8000a30:	78fa      	ldrb	r2, [r7, #3]
 8000a32:	4611      	mov	r1, r2
 8000a34:	4618      	mov	r0, r3
 8000a36:	f001 fcb8 	bl	80023aa <USB_ReadChInterrupts>
 8000a3a:	4603      	mov	r3, r0
 8000a3c:	f403 6380 	and.w	r3, r3, #1024	@ 0x400
 8000a40:	f5b3 6f80 	cmp.w	r3, #1024	@ 0x400
 8000a44:	d11b      	bne.n	8000a7e <HCD_HC_IN_IRQHandler+0x156>
  {
    __HAL_HCD_CLEAR_HC_INT(chnum, USB_OTG_HCINT_DTERR);
 8000a46:	78fb      	ldrb	r3, [r7, #3]
 8000a48:	015a      	lsls	r2, r3, #5
 8000a4a:	693b      	ldr	r3, [r7, #16]
 8000a4c:	4413      	add	r3, r2
 8000a4e:	f503 63a0 	add.w	r3, r3, #1280	@ 0x500
 8000a52:	461a      	mov	r2, r3
 8000a54:	f44f 6380 	mov.w	r3, #1024	@ 0x400
 8000a58:	6093      	str	r3, [r2, #8]
    hhcd->hc[chnum].state = HC_DATATGLERR;
 8000a5a:	78fa      	ldrb	r2, [r7, #3]
 8000a5c:	6879      	ldr	r1, [r7, #4]
 8000a5e:	4613      	mov	r3, r2
 8000a60:	011b      	lsls	r3, r3, #4
 8000a62:	1a9b      	subs	r3, r3, r2
 8000a64:	009b      	lsls	r3, r3, #2
 8000a66:	440b      	add	r3, r1
 8000a68:	334d      	adds	r3, #77	@ 0x4d
 8000a6a:	2209      	movs	r2, #9
 8000a6c:	701a      	strb	r2, [r3, #0]
    (void)USB_HC_Halt(hhcd->Instance, chnum);
 8000a6e:	687b      	ldr	r3, [r7, #4]
 8000a70:	681b      	ldr	r3, [r3, #0]
 8000a72:	78fa      	ldrb	r2, [r7, #3]
 8000a74:	4611      	mov	r1, r2
 8000a76:	4618      	mov	r0, r3
 8000a78:	f001 fd10 	bl	800249c <USB_HC_Halt>
 8000a7c:	e025      	b.n	8000aca <HCD_HC_IN_IRQHandler+0x1a2>
  }
  else if (__HAL_HCD_GET_CH_FLAG(hhcd, chnum, USB_OTG_HCINT_TXERR))
 8000a7e:	687b      	ldr	r3, [r7, #4]
 8000a80:	681b      	ldr	r3, [r3, #0]
 8000a82:	78fa      	ldrb	r2, [r7, #3]
 8000a84:	4611      	mov	r1, r2
 8000a86:	4618      	mov	r0, r3
 8000a88:	f001 fc8f 	bl	80023aa <USB_ReadChInterrupts>
 8000a8c:	4603      	mov	r3, r0
 8000a8e:	f003 0380 	and.w	r3, r3, #128	@ 0x80
 8000a92:	2b80      	cmp	r3, #128	@ 0x80
 8000a94:	d119      	bne.n	8000aca <HCD_HC_IN_IRQHandler+0x1a2>
  {
    __HAL_HCD_CLEAR_HC_INT(chnum, USB_OTG_HCINT_TXERR);
 8000a96:	78fb      	ldrb	r3, [r7, #3]
 8000a98:	015a      	lsls	r2, r3, #5
 8000a9a:	693b      	ldr	r3, [r7, #16]
 8000a9c:	4413      	add	r3, r2
 8000a9e:	f503 63a0 	add.w	r3, r3, #1280	@ 0x500
 8000aa2:	461a      	mov	r2, r3
 8000aa4:	2380      	movs	r3, #128	@ 0x80
 8000aa6:	6093      	str	r3, [r2, #8]
    hhcd->hc[chnum].state = HC_XACTERR;
 8000aa8:	78fa      	ldrb	r2, [r7, #3]
 8000aaa:	6879      	ldr	r1, [r7, #4]
 8000aac:	4613      	mov	r3, r2
 8000aae:	011b      	lsls	r3, r3, #4
 8000ab0:	1a9b      	subs	r3, r3, r2
 8000ab2:	009b      	lsls	r3, r3, #2
 8000ab4:	440b      	add	r3, r1
 8000ab6:	334d      	adds	r3, #77	@ 0x4d
 8000ab8:	2207      	movs	r2, #7
 8000aba:	701a      	strb	r2, [r3, #0]
    (void)USB_HC_Halt(hhcd->Instance, chnum);
 8000abc:	687b      	ldr	r3, [r7, #4]
 8000abe:	681b      	ldr	r3, [r3, #0]
 8000ac0:	78fa      	ldrb	r2, [r7, #3]
 8000ac2:	4611      	mov	r1, r2
 8000ac4:	4618      	mov	r0, r3
 8000ac6:	f001 fce9 	bl	800249c <USB_HC_Halt>
  else
  {
    /* ... */
  }

  if (__HAL_HCD_GET_CH_FLAG(hhcd, chnum, USB_OTG_HCINT_FRMOR))
 8000aca:	687b      	ldr	r3, [r7, #4]
 8000acc:	681b      	ldr	r3, [r3, #0]
 8000ace:	78fa      	ldrb	r2, [r7, #3]
 8000ad0:	4611      	mov	r1, r2
 8000ad2:	4618      	mov	r0, r3
 8000ad4:	f001 fc69 	bl	80023aa <USB_ReadChInterrupts>
 8000ad8:	4603      	mov	r3, r0
 8000ada:	f403 7300 	and.w	r3, r3, #512	@ 0x200
 8000ade:	f5b3 7f00 	cmp.w	r3, #512	@ 0x200
 8000ae2:	d112      	bne.n	8000b0a <HCD_HC_IN_IRQHandler+0x1e2>
  {
    (void)USB_HC_Halt(hhcd->Instance, chnum);
 8000ae4:	687b      	ldr	r3, [r7, #4]
 8000ae6:	681b      	ldr	r3, [r3, #0]
 8000ae8:	78fa      	ldrb	r2, [r7, #3]
 8000aea:	4611      	mov	r1, r2
 8000aec:	4618      	mov	r0, r3
 8000aee:	f001 fcd5 	bl	800249c <USB_HC_Halt>
    __HAL_HCD_CLEAR_HC_INT(chnum, USB_OTG_HCINT_FRMOR);
 8000af2:	78fb      	ldrb	r3, [r7, #3]
 8000af4:	015a      	lsls	r2, r3, #5
 8000af6:	693b      	ldr	r3, [r7, #16]
 8000af8:	4413      	add	r3, r2
 8000afa:	f503 63a0 	add.w	r3, r3, #1280	@ 0x500
 8000afe:	461a      	mov	r2, r3
 8000b00:	f44f 7300 	mov.w	r3, #512	@ 0x200
 8000b04:	6093      	str	r3, [r2, #8]
 8000b06:	f000 bd75 	b.w	80015f4 <HCD_HC_IN_IRQHandler+0xccc>
  }
  else if (__HAL_HCD_GET_CH_FLAG(hhcd, chnum, USB_OTG_HCINT_XFRC))
 8000b0a:	687b      	ldr	r3, [r7, #4]
 8000b0c:	681b      	ldr	r3, [r3, #0]
 8000b0e:	78fa      	ldrb	r2, [r7, #3]
 8000b10:	4611      	mov	r1, r2
 8000b12:	4618      	mov	r0, r3
 8000b14:	f001 fc49 	bl	80023aa <USB_ReadChInterrupts>
 8000b18:	4603      	mov	r3, r0
 8000b1a:	f003 0301 	and.w	r3, r3, #1
 8000b1e:	2b01      	cmp	r3, #1
 8000b20:	f040 8128 	bne.w	8000d74 <HCD_HC_IN_IRQHandler+0x44c>
  {
    /* Clear any pending ACK IT */
    __HAL_HCD_CLEAR_HC_INT(chnum, USB_OTG_HCINT_ACK);
 8000b24:	78fb      	ldrb	r3, [r7, #3]
 8000b26:	015a      	lsls	r2, r3, #5
 8000b28:	693b      	ldr	r3, [r7, #16]
 8000b2a:	4413      	add	r3, r2
 8000b2c:	f503 63a0 	add.w	r3, r3, #1280	@ 0x500
 8000b30:	461a      	mov	r2, r3
 8000b32:	2320      	movs	r3, #32
 8000b34:	6093      	str	r3, [r2, #8]

    if (hhcd->hc[chnum].do_csplit == 1U)
 8000b36:	78fa      	ldrb	r2, [r7, #3]
 8000b38:	6879      	ldr	r1, [r7, #4]
 8000b3a:	4613      	mov	r3, r2
 8000b3c:	011b      	lsls	r3, r3, #4
 8000b3e:	1a9b      	subs	r3, r3, r2
 8000b40:	009b      	lsls	r3, r3, #2
 8000b42:	440b      	add	r3, r1
 8000b44:	331b      	adds	r3, #27
 8000b46:	781b      	ldrb	r3, [r3, #0]
 8000b48:	2b01      	cmp	r3, #1
 8000b4a:	d119      	bne.n	8000b80 <HCD_HC_IN_IRQHandler+0x258>
    {
      hhcd->hc[chnum].do_csplit = 0U;
 8000b4c:	78fa      	ldrb	r2, [r7, #3]
 8000b4e:	6879      	ldr	r1, [r7, #4]
 8000b50:	4613      	mov	r3, r2
 8000b52:	011b      	lsls	r3, r3, #4
 8000b54:	1a9b      	subs	r3, r3, r2
 8000b56:	009b      	lsls	r3, r3, #2
 8000b58:	440b      	add	r3, r1
 8000b5a:	331b      	adds	r3, #27
 8000b5c:	2200      	movs	r2, #0
 8000b5e:	701a      	strb	r2, [r3, #0]
      __HAL_HCD_CLEAR_HC_CSPLT(chnum);
 8000b60:	78fb      	ldrb	r3, [r7, #3]
 8000b62:	015a      	lsls	r2, r3, #5
 8000b64:	693b      	ldr	r3, [r7, #16]
 8000b66:	4413      	add	r3, r2
 8000b68:	f503 63a0 	add.w	r3, r3, #1280	@ 0x500
 8000b6c:	685b      	ldr	r3, [r3, #4]
 8000b6e:	78fa      	ldrb	r2, [r7, #3]
 8000b70:	0151      	lsls	r1, r2, #5
 8000b72:	693a      	ldr	r2, [r7, #16]
 8000b74:	440a      	add	r2, r1
 8000b76:	f502 62a0 	add.w	r2, r2, #1280	@ 0x500
 8000b7a:	f423 3380 	bic.w	r3, r3, #65536	@ 0x10000
 8000b7e:	6053      	str	r3, [r2, #4]
    }

    if (hhcd->Init.dma_enable != 0U)
 8000b80:	687b      	ldr	r3, [r7, #4]
 8000b82:	799b      	ldrb	r3, [r3, #6]
 8000b84:	2b00      	cmp	r3, #0
 8000b86:	d01b      	beq.n	8000bc0 <HCD_HC_IN_IRQHandler+0x298>
    {
      hhcd->hc[chnum].xfer_count = hhcd->hc[chnum].XferSize - (USBx_HC(chnum)->HCTSIZ & USB_OTG_HCTSIZ_XFRSIZ);
 8000b88:	78fa      	ldrb	r2, [r7, #3]
 8000b8a:	6879      	ldr	r1, [r7, #4]
 8000b8c:	4613      	mov	r3, r2
 8000b8e:	011b      	lsls	r3, r3, #4
 8000b90:	1a9b      	subs	r3, r3, r2
 8000b92:	009b      	lsls	r3, r3, #2
 8000b94:	440b      	add	r3, r1
 8000b96:	3330      	adds	r3, #48	@ 0x30
 8000b98:	6819      	ldr	r1, [r3, #0]
 8000b9a:	78fb      	ldrb	r3, [r7, #3]
 8000b9c:	015a      	lsls	r2, r3, #5
 8000b9e:	693b      	ldr	r3, [r7, #16]
 8000ba0:	4413      	add	r3, r2
 8000ba2:	f503 63a0 	add.w	r3, r3, #1280	@ 0x500
 8000ba6:	691b      	ldr	r3, [r3, #16]
 8000ba8:	f3c3 0312 	ubfx	r3, r3, #0, #19
 8000bac:	78fa      	ldrb	r2, [r7, #3]
 8000bae:	1ac9      	subs	r1, r1, r3
 8000bb0:	6878      	ldr	r0, [r7, #4]
 8000bb2:	4613      	mov	r3, r2
 8000bb4:	011b      	lsls	r3, r3, #4
 8000bb6:	1a9b      	subs	r3, r3, r2
 8000bb8:	009b      	lsls	r3, r3, #2
 8000bba:	4403      	add	r3, r0
 8000bbc:	3338      	adds	r3, #56	@ 0x38
 8000bbe:	6019      	str	r1, [r3, #0]
    }

    hhcd->hc[chnum].state = HC_XFRC;
 8000bc0:	78fa      	ldrb	r2, [r7, #3]
 8000bc2:	6879      	ldr	r1, [r7, #4]
 8000bc4:	4613      	mov	r3, r2
 8000bc6:	011b      	lsls	r3, r3, #4
 8000bc8:	1a9b      	subs	r3, r3, r2
 8000bca:	009b      	lsls	r3, r3, #2
 8000bcc:	440b      	add	r3, r1
 8000bce:	334d      	adds	r3, #77	@ 0x4d
 8000bd0:	2201      	movs	r2, #1
 8000bd2:	701a      	strb	r2, [r3, #0]
    hhcd->hc[chnum].ErrCnt = 0U;
 8000bd4:	78fa      	ldrb	r2, [r7, #3]
 8000bd6:	6879      	ldr	r1, [r7, #4]
 8000bd8:	4613      	mov	r3, r2
 8000bda:	011b      	lsls	r3, r3, #4
 8000bdc:	1a9b      	subs	r3, r3, r2
 8000bde:	009b      	lsls	r3, r3, #2
 8000be0:	440b      	add	r3, r1
 8000be2:	3344      	adds	r3, #68	@ 0x44
 8000be4:	2200      	movs	r2, #0
 8000be6:	601a      	str	r2, [r3, #0]
    __HAL_HCD_CLEAR_HC_INT(chnum, USB_OTG_HCINT_XFRC);
 8000be8:	78fb      	ldrb	r3, [r7, #3]
 8000bea:	015a      	lsls	r2, r3, #5
 8000bec:	693b      	ldr	r3, [r7, #16]
 8000bee:	4413      	add	r3, r2
 8000bf0:	f503 63a0 	add.w	r3, r3, #1280	@ 0x500
 8000bf4:	461a      	mov	r2, r3
 8000bf6:	2301      	movs	r3, #1
 8000bf8:	6093      	str	r3, [r2, #8]

    if ((hhcd->hc[chnum].ep_type == EP_TYPE_CTRL) ||
 8000bfa:	78fa      	ldrb	r2, [r7, #3]
 8000bfc:	6879      	ldr	r1, [r7, #4]
 8000bfe:	4613      	mov	r3, r2
 8000c00:	011b      	lsls	r3, r3, #4
 8000c02:	1a9b      	subs	r3, r3, r2
 8000c04:	009b      	lsls	r3, r3, #2
 8000c06:	440b      	add	r3, r1
 8000c08:	3326      	adds	r3, #38	@ 0x26
 8000c0a:	781b      	ldrb	r3, [r3, #0]
 8000c0c:	2b00      	cmp	r3, #0
 8000c0e:	d00a      	beq.n	8000c26 <HCD_HC_IN_IRQHandler+0x2fe>
        (hhcd->hc[chnum].ep_type == EP_TYPE_BULK))
 8000c10:	78fa      	ldrb	r2, [r7, #3]
 8000c12:	6879      	ldr	r1, [r7, #4]
 8000c14:	4613      	mov	r3, r2
 8000c16:	011b      	lsls	r3, r3, #4
 8000c18:	1a9b      	subs	r3, r3, r2
 8000c1a:	009b      	lsls	r3, r3, #2
 8000c1c:	440b      	add	r3, r1
 8000c1e:	3326      	adds	r3, #38	@ 0x26
 8000c20:	781b      	ldrb	r3, [r3, #0]
    if ((hhcd->hc[chnum].ep_type == EP_TYPE_CTRL) ||
 8000c22:	2b02      	cmp	r3, #2
 8000c24:	d110      	bne.n	8000c48 <HCD_HC_IN_IRQHandler+0x320>
    {
      (void)USB_HC_Halt(hhcd->Instance, chnum);
 8000c26:	687b      	ldr	r3, [r7, #4]
 8000c28:	681b      	ldr	r3, [r3, #0]
 8000c2a:	78fa      	ldrb	r2, [r7, #3]
 8000c2c:	4611      	mov	r1, r2
 8000c2e:	4618      	mov	r0, r3
 8000c30:	f001 fc34 	bl	800249c <USB_HC_Halt>
      __HAL_HCD_CLEAR_HC_INT(chnum, USB_OTG_HCINT_NAK);
 8000c34:	78fb      	ldrb	r3, [r7, #3]
 8000c36:	015a      	lsls	r2, r3, #5
 8000c38:	693b      	ldr	r3, [r7, #16]
 8000c3a:	4413      	add	r3, r2
 8000c3c:	f503 63a0 	add.w	r3, r3, #1280	@ 0x500
 8000c40:	461a      	mov	r2, r3
 8000c42:	2310      	movs	r3, #16
 8000c44:	6093      	str	r3, [r2, #8]
 8000c46:	e03d      	b.n	8000cc4 <HCD_HC_IN_IRQHandler+0x39c>
    }
    else if ((hhcd->hc[chnum].ep_type == EP_TYPE_INTR) ||
 8000c48:	78fa      	ldrb	r2, [r7, #3]
 8000c4a:	6879      	ldr	r1, [r7, #4]
 8000c4c:	4613      	mov	r3, r2
 8000c4e:	011b      	lsls	r3, r3, #4
 8000c50:	1a9b      	subs	r3, r3, r2
 8000c52:	009b      	lsls	r3, r3, #2
 8000c54:	440b      	add	r3, r1
 8000c56:	3326      	adds	r3, #38	@ 0x26
 8000c58:	781b      	ldrb	r3, [r3, #0]
 8000c5a:	2b03      	cmp	r3, #3
 8000c5c:	d00a      	beq.n	8000c74 <HCD_HC_IN_IRQHandler+0x34c>
             (hhcd->hc[chnum].ep_type == EP_TYPE_ISOC))
 8000c5e:	78fa      	ldrb	r2, [r7, #3]
 8000c60:	6879      	ldr	r1, [r7, #4]
 8000c62:	4613      	mov	r3, r2
 8000c64:	011b      	lsls	r3, r3, #4
 8000c66:	1a9b      	subs	r3, r3, r2
 8000c68:	009b      	lsls	r3, r3, #2
 8000c6a:	440b      	add	r3, r1
 8000c6c:	3326      	adds	r3, #38	@ 0x26
 8000c6e:	781b      	ldrb	r3, [r3, #0]
    else if ((hhcd->hc[chnum].ep_type == EP_TYPE_INTR) ||
 8000c70:	2b01      	cmp	r3, #1
 8000c72:	d127      	bne.n	8000cc4 <HCD_HC_IN_IRQHandler+0x39c>
    {
      USBx_HC(chnum)->HCCHAR |= USB_OTG_HCCHAR_ODDFRM;
 8000c74:	78fb      	ldrb	r3, [r7, #3]
 8000c76:	015a      	lsls	r2, r3, #5
 8000c78:	693b      	ldr	r3, [r7, #16]
 8000c7a:	4413      	add	r3, r2
 8000c7c:	f503 63a0 	add.w	r3, r3, #1280	@ 0x500
 8000c80:	681b      	ldr	r3, [r3, #0]
 8000c82:	78fa      	ldrb	r2, [r7, #3]
 8000c84:	0151      	lsls	r1, r2, #5
 8000c86:	693a      	ldr	r2, [r7, #16]
 8000c88:	440a      	add	r2, r1
 8000c8a:	f502 62a0 	add.w	r2, r2, #1280	@ 0x500
 8000c8e:	f043 5300 	orr.w	r3, r3, #536870912	@ 0x20000000
 8000c92:	6013      	str	r3, [r2, #0]
      hhcd->hc[chnum].urb_state = URB_DONE;
 8000c94:	78fa      	ldrb	r2, [r7, #3]
 8000c96:	6879      	ldr	r1, [r7, #4]
 8000c98:	4613      	mov	r3, r2
 8000c9a:	011b      	lsls	r3, r3, #4
 8000c9c:	1a9b      	subs	r3, r3, r2
 8000c9e:	009b      	lsls	r3, r3, #2
 8000ca0:	440b      	add	r3, r1
 8000ca2:	334c      	adds	r3, #76	@ 0x4c
 8000ca4:	2201      	movs	r2, #1
 8000ca6:	701a      	strb	r2, [r3, #0]

#if (USE_HAL_HCD_REGISTER_CALLBACKS == 1U)
      hhcd->HC_NotifyURBChangeCallback(hhcd, chnum, hhcd->hc[chnum].urb_state);
#else
      HAL_HCD_HC_NotifyURBChange_Callback(hhcd, chnum, hhcd->hc[chnum].urb_state);
 8000ca8:	78fa      	ldrb	r2, [r7, #3]
 8000caa:	6879      	ldr	r1, [r7, #4]
 8000cac:	4613      	mov	r3, r2
 8000cae:	011b      	lsls	r3, r3, #4
 8000cb0:	1a9b      	subs	r3, r3, r2
 8000cb2:	009b      	lsls	r3, r3, #2
 8000cb4:	440b      	add	r3, r1
 8000cb6:	334c      	adds	r3, #76	@ 0x4c
 8000cb8:	781a      	ldrb	r2, [r3, #0]
 8000cba:	78fb      	ldrb	r3, [r7, #3]
 8000cbc:	4619      	mov	r1, r3
 8000cbe:	6878      	ldr	r0, [r7, #4]
 8000cc0:	f7ff fe25 	bl	800090e <HAL_HCD_HC_NotifyURBChange_Callback>
    else
    {
      /* ... */
    }

    if (hhcd->Init.dma_enable == 1U)
 8000cc4:	687b      	ldr	r3, [r7, #4]
 8000cc6:	799b      	ldrb	r3, [r3, #6]
 8000cc8:	2b01      	cmp	r3, #1
 8000cca:	d13b      	bne.n	8000d44 <HCD_HC_IN_IRQHandler+0x41c>
    {
      if ((((hhcd->hc[chnum].xfer_count + hhcd->hc[chnum].max_packet - 1U) / hhcd->hc[chnum].max_packet) & 1U) != 0U)
 8000ccc:	78fa      	ldrb	r2, [r7, #3]
 8000cce:	6879      	ldr	r1, [r7, #4]
 8000cd0:	4613      	mov	r3, r2
 8000cd2:	011b      	lsls	r3, r3, #4
 8000cd4:	1a9b      	subs	r3, r3, r2
 8000cd6:	009b      	lsls	r3, r3, #2
 8000cd8:	440b      	add	r3, r1
 8000cda:	3338      	adds	r3, #56	@ 0x38
 8000cdc:	6819      	ldr	r1, [r3, #0]
 8000cde:	78fa      	ldrb	r2, [r7, #3]
 8000ce0:	6878      	ldr	r0, [r7, #4]
 8000ce2:	4613      	mov	r3, r2
 8000ce4:	011b      	lsls	r3, r3, #4
 8000ce6:	1a9b      	subs	r3, r3, r2
 8000ce8:	009b      	lsls	r3, r3, #2
 8000cea:	4403      	add	r3, r0
 8000cec:	3328      	adds	r3, #40	@ 0x28
 8000cee:	881b      	ldrh	r3, [r3, #0]
 8000cf0:	440b      	add	r3, r1
 8000cf2:	1e59      	subs	r1, r3, #1
 8000cf4:	78fa      	ldrb	r2, [r7, #3]
 8000cf6:	6878      	ldr	r0, [r7, #4]
 8000cf8:	4613      	mov	r3, r2
 8000cfa:	011b      	lsls	r3, r3, #4
 8000cfc:	1a9b      	subs	r3, r3, r2
 8000cfe:	009b      	lsls	r3, r3, #2
 8000d00:	4403      	add	r3, r0
 8000d02:	3328      	adds	r3, #40	@ 0x28
 8000d04:	881b      	ldrh	r3, [r3, #0]
 8000d06:	fbb1 f3f3 	udiv	r3, r1, r3
 8000d0a:	f003 0301 	and.w	r3, r3, #1
 8000d0e:	2b00      	cmp	r3, #0
 8000d10:	f000 8470 	beq.w	80015f4 <HCD_HC_IN_IRQHandler+0xccc>
      {
        hhcd->hc[chnum].toggle_in ^= 1U;
 8000d14:	78fa      	ldrb	r2, [r7, #3]
 8000d16:	6879      	ldr	r1, [r7, #4]
 8000d18:	4613      	mov	r3, r2
 8000d1a:	011b      	lsls	r3, r3, #4
 8000d1c:	1a9b      	subs	r3, r3, r2
 8000d1e:	009b      	lsls	r3, r3, #2
 8000d20:	440b      	add	r3, r1
 8000d22:	333c      	adds	r3, #60	@ 0x3c
 8000d24:	781b      	ldrb	r3, [r3, #0]
 8000d26:	78fa      	ldrb	r2, [r7, #3]
 8000d28:	f083 0301 	eor.w	r3, r3, #1
 8000d2c:	b2d8      	uxtb	r0, r3
 8000d2e:	6879      	ldr	r1, [r7, #4]
 8000d30:	4613      	mov	r3, r2
 8000d32:	011b      	lsls	r3, r3, #4
 8000d34:	1a9b      	subs	r3, r3, r2
 8000d36:	009b      	lsls	r3, r3, #2
 8000d38:	440b      	add	r3, r1
 8000d3a:	333c      	adds	r3, #60	@ 0x3c
 8000d3c:	4602      	mov	r2, r0
 8000d3e:	701a      	strb	r2, [r3, #0]
 8000d40:	f000 bc58 	b.w	80015f4 <HCD_HC_IN_IRQHandler+0xccc>
      }
    }
    else
    {
      hhcd->hc[chnum].toggle_in ^= 1U;
 8000d44:	78fa      	ldrb	r2, [r7, #3]
 8000d46:	6879      	ldr	r1, [r7, #4]
 8000d48:	4613      	mov	r3, r2
 8000d4a:	011b      	lsls	r3, r3, #4
 8000d4c:	1a9b      	subs	r3, r3, r2
 8000d4e:	009b      	lsls	r3, r3, #2
 8000d50:	440b      	add	r3, r1
 8000d52:	333c      	adds	r3, #60	@ 0x3c
 8000d54:	781b      	ldrb	r3, [r3, #0]
 8000d56:	78fa      	ldrb	r2, [r7, #3]
 8000d58:	f083 0301 	eor.w	r3, r3, #1
 8000d5c:	b2d8      	uxtb	r0, r3
 8000d5e:	6879      	ldr	r1, [r7, #4]
 8000d60:	4613      	mov	r3, r2
 8000d62:	011b      	lsls	r3, r3, #4
 8000d64:	1a9b      	subs	r3, r3, r2
 8000d66:	009b      	lsls	r3, r3, #2
 8000d68:	440b      	add	r3, r1
 8000d6a:	333c      	adds	r3, #60	@ 0x3c
 8000d6c:	4602      	mov	r2, r0
 8000d6e:	701a      	strb	r2, [r3, #0]
 8000d70:	f000 bc40 	b.w	80015f4 <HCD_HC_IN_IRQHandler+0xccc>
    }
  }
  else if (__HAL_HCD_GET_CH_FLAG(hhcd, chnum, USB_OTG_HCINT_ACK))
 8000d74:	687b      	ldr	r3, [r7, #4]
 8000d76:	681b      	ldr	r3, [r3, #0]
 8000d78:	78fa      	ldrb	r2, [r7, #3]
 8000d7a:	4611      	mov	r1, r2
 8000d7c:	4618      	mov	r0, r3
 8000d7e:	f001 fb14 	bl	80023aa <USB_ReadChInterrupts>
 8000d82:	4603      	mov	r3, r0
 8000d84:	f003 0320 	and.w	r3, r3, #32
 8000d88:	2b20      	cmp	r3, #32
 8000d8a:	d131      	bne.n	8000df0 <HCD_HC_IN_IRQHandler+0x4c8>
  {
    __HAL_HCD_CLEAR_HC_INT(chnum, USB_OTG_HCINT_ACK);
 8000d8c:	78fb      	ldrb	r3, [r7, #3]
 8000d8e:	015a      	lsls	r2, r3, #5
 8000d90:	693b      	ldr	r3, [r7, #16]
 8000d92:	4413      	add	r3, r2
 8000d94:	f503 63a0 	add.w	r3, r3, #1280	@ 0x500
 8000d98:	461a      	mov	r2, r3
 8000d9a:	2320      	movs	r3, #32
 8000d9c:	6093      	str	r3, [r2, #8]

    if (hhcd->hc[chnum].do_ssplit == 1U)
 8000d9e:	78fa      	ldrb	r2, [r7, #3]
 8000da0:	6879      	ldr	r1, [r7, #4]
 8000da2:	4613      	mov	r3, r2
 8000da4:	011b      	lsls	r3, r3, #4
 8000da6:	1a9b      	subs	r3, r3, r2
 8000da8:	009b      	lsls	r3, r3, #2
 8000daa:	440b      	add	r3, r1
 8000dac:	331a      	adds	r3, #26
 8000dae:	781b      	ldrb	r3, [r3, #0]
 8000db0:	2b01      	cmp	r3, #1
 8000db2:	f040 841f 	bne.w	80015f4 <HCD_HC_IN_IRQHandler+0xccc>
    {
      hhcd->hc[chnum].do_csplit = 1U;
 8000db6:	78fa      	ldrb	r2, [r7, #3]
 8000db8:	6879      	ldr	r1, [r7, #4]
 8000dba:	4613      	mov	r3, r2
 8000dbc:	011b      	lsls	r3, r3, #4
 8000dbe:	1a9b      	subs	r3, r3, r2
 8000dc0:	009b      	lsls	r3, r3, #2
 8000dc2:	440b      	add	r3, r1
 8000dc4:	331b      	adds	r3, #27
 8000dc6:	2201      	movs	r2, #1
 8000dc8:	701a      	strb	r2, [r3, #0]
      hhcd->hc[chnum].state = HC_ACK;
 8000dca:	78fa      	ldrb	r2, [r7, #3]
 8000dcc:	6879      	ldr	r1, [r7, #4]
 8000dce:	4613      	mov	r3, r2
 8000dd0:	011b      	lsls	r3, r3, #4
 8000dd2:	1a9b      	subs	r3, r3, r2
 8000dd4:	009b      	lsls	r3, r3, #2
 8000dd6:	440b      	add	r3, r1
 8000dd8:	334d      	adds	r3, #77	@ 0x4d
 8000dda:	2203      	movs	r2, #3
 8000ddc:	701a      	strb	r2, [r3, #0]

      (void)USB_HC_Halt(hhcd->Instance, chnum);
 8000dde:	687b      	ldr	r3, [r7, #4]
 8000de0:	681b      	ldr	r3, [r3, #0]
 8000de2:	78fa      	ldrb	r2, [r7, #3]
 8000de4:	4611      	mov	r1, r2
 8000de6:	4618      	mov	r0, r3
 8000de8:	f001 fb58 	bl	800249c <USB_HC_Halt>
 8000dec:	f000 bc02 	b.w	80015f4 <HCD_HC_IN_IRQHandler+0xccc>
    }
  }
  else if (__HAL_HCD_GET_CH_FLAG(hhcd, chnum, USB_OTG_HCINT_CHH))
 8000df0:	687b      	ldr	r3, [r7, #4]
 8000df2:	681b      	ldr	r3, [r3, #0]
 8000df4:	78fa      	ldrb	r2, [r7, #3]
 8000df6:	4611      	mov	r1, r2
 8000df8:	4618      	mov	r0, r3
 8000dfa:	f001 fad6 	bl	80023aa <USB_ReadChInterrupts>
 8000dfe:	4603      	mov	r3, r0
 8000e00:	f003 0302 	and.w	r3, r3, #2
 8000e04:	2b02      	cmp	r3, #2
 8000e06:	f040 8305 	bne.w	8001414 <HCD_HC_IN_IRQHandler+0xaec>
  {
    __HAL_HCD_CLEAR_HC_INT(chnum, USB_OTG_HCINT_CHH);
 8000e0a:	78fb      	ldrb	r3, [r7, #3]
 8000e0c:	015a      	lsls	r2, r3, #5
 8000e0e:	693b      	ldr	r3, [r7, #16]
 8000e10:	4413      	add	r3, r2
 8000e12:	f503 63a0 	add.w	r3, r3, #1280	@ 0x500
 8000e16:	461a      	mov	r2, r3
 8000e18:	2302      	movs	r3, #2
 8000e1a:	6093      	str	r3, [r2, #8]

    if (hhcd->hc[chnum].state == HC_XFRC)
 8000e1c:	78fa      	ldrb	r2, [r7, #3]
 8000e1e:	6879      	ldr	r1, [r7, #4]
 8000e20:	4613      	mov	r3, r2
 8000e22:	011b      	lsls	r3, r3, #4
 8000e24:	1a9b      	subs	r3, r3, r2
 8000e26:	009b      	lsls	r3, r3, #2
 8000e28:	440b      	add	r3, r1
 8000e2a:	334d      	adds	r3, #77	@ 0x4d
 8000e2c:	781b      	ldrb	r3, [r3, #0]
 8000e2e:	2b01      	cmp	r3, #1
 8000e30:	d114      	bne.n	8000e5c <HCD_HC_IN_IRQHandler+0x534>
    {
      hhcd->hc[chnum].state = HC_HALTED;
 8000e32:	78fa      	ldrb	r2, [r7, #3]
 8000e34:	6879      	ldr	r1, [r7, #4]
 8000e36:	4613      	mov	r3, r2
 8000e38:	011b      	lsls	r3, r3, #4
 8000e3a:	1a9b      	subs	r3, r3, r2
 8000e3c:	009b      	lsls	r3, r3, #2
 8000e3e:	440b      	add	r3, r1
 8000e40:	334d      	adds	r3, #77	@ 0x4d
 8000e42:	2202      	movs	r2, #2
 8000e44:	701a      	strb	r2, [r3, #0]
      hhcd->hc[chnum].urb_state = URB_DONE;
 8000e46:	78fa      	ldrb	r2, [r7, #3]
 8000e48:	6879      	ldr	r1, [r7, #4]
 8000e4a:	4613      	mov	r3, r2
 8000e4c:	011b      	lsls	r3, r3, #4
 8000e4e:	1a9b      	subs	r3, r3, r2
 8000e50:	009b      	lsls	r3, r3, #2
 8000e52:	440b      	add	r3, r1
 8000e54:	334c      	adds	r3, #76	@ 0x4c
 8000e56:	2201      	movs	r2, #1
 8000e58:	701a      	strb	r2, [r3, #0]
 8000e5a:	e2cc      	b.n	80013f6 <HCD_HC_IN_IRQHandler+0xace>
    }
    else if (hhcd->hc[chnum].state == HC_STALL)
 8000e5c:	78fa      	ldrb	r2, [r7, #3]
 8000e5e:	6879      	ldr	r1, [r7, #4]
 8000e60:	4613      	mov	r3, r2
 8000e62:	011b      	lsls	r3, r3, #4
 8000e64:	1a9b      	subs	r3, r3, r2
 8000e66:	009b      	lsls	r3, r3, #2
 8000e68:	440b      	add	r3, r1
 8000e6a:	334d      	adds	r3, #77	@ 0x4d
 8000e6c:	781b      	ldrb	r3, [r3, #0]
 8000e6e:	2b06      	cmp	r3, #6
 8000e70:	d114      	bne.n	8000e9c <HCD_HC_IN_IRQHandler+0x574>
    {
      hhcd->hc[chnum].state = HC_HALTED;
 8000e72:	78fa      	ldrb	r2, [r7, #3]
 8000e74:	6879      	ldr	r1, [r7, #4]
 8000e76:	4613      	mov	r3, r2
 8000e78:	011b      	lsls	r3, r3, #4
 8000e7a:	1a9b      	subs	r3, r3, r2
 8000e7c:	009b      	lsls	r3, r3, #2
 8000e7e:	440b      	add	r3, r1
 8000e80:	334d      	adds	r3, #77	@ 0x4d
 8000e82:	2202      	movs	r2, #2
 8000e84:	701a      	strb	r2, [r3, #0]
      hhcd->hc[chnum].urb_state = URB_STALL;
 8000e86:	78fa      	ldrb	r2, [r7, #3]
 8000e88:	6879      	ldr	r1, [r7, #4]
 8000e8a:	4613      	mov	r3, r2
 8000e8c:	011b      	lsls	r3, r3, #4
 8000e8e:	1a9b      	subs	r3, r3, r2
 8000e90:	009b      	lsls	r3, r3, #2
 8000e92:	440b      	add	r3, r1
 8000e94:	334c      	adds	r3, #76	@ 0x4c
 8000e96:	2205      	movs	r2, #5
 8000e98:	701a      	strb	r2, [r3, #0]
 8000e9a:	e2ac      	b.n	80013f6 <HCD_HC_IN_IRQHandler+0xace>
    }
    else if ((hhcd->hc[chnum].state == HC_XACTERR) ||
 8000e9c:	78fa      	ldrb	r2, [r7, #3]
 8000e9e:	6879      	ldr	r1, [r7, #4]
 8000ea0:	4613      	mov	r3, r2
 8000ea2:	011b      	lsls	r3, r3, #4
 8000ea4:	1a9b      	subs	r3, r3, r2
 8000ea6:	009b      	lsls	r3, r3, #2
 8000ea8:	440b      	add	r3, r1
 8000eaa:	334d      	adds	r3, #77	@ 0x4d
 8000eac:	781b      	ldrb	r3, [r3, #0]
 8000eae:	2b07      	cmp	r3, #7
 8000eb0:	d00b      	beq.n	8000eca <HCD_HC_IN_IRQHandler+0x5a2>
             (hhcd->hc[chnum].state == HC_DATATGLERR))
 8000eb2:	78fa      	ldrb	r2, [r7, #3]
 8000eb4:	6879      	ldr	r1, [r7, #4]
 8000eb6:	4613      	mov	r3, r2
 8000eb8:	011b      	lsls	r3, r3, #4
 8000eba:	1a9b      	subs	r3, r3, r2
 8000ebc:	009b      	lsls	r3, r3, #2
 8000ebe:	440b      	add	r3, r1
 8000ec0:	334d      	adds	r3, #77	@ 0x4d
 8000ec2:	781b      	ldrb	r3, [r3, #0]
    else if ((hhcd->hc[chnum].state == HC_XACTERR) ||
 8000ec4:	2b09      	cmp	r3, #9
 8000ec6:	f040 80a6 	bne.w	8001016 <HCD_HC_IN_IRQHandler+0x6ee>
    {
      hhcd->hc[chnum].state = HC_HALTED;
 8000eca:	78fa      	ldrb	r2, [r7, #3]
 8000ecc:	6879      	ldr	r1, [r7, #4]
 8000ece:	4613      	mov	r3, r2
 8000ed0:	011b      	lsls	r3, r3, #4
 8000ed2:	1a9b      	subs	r3, r3, r2
 8000ed4:	009b      	lsls	r3, r3, #2
 8000ed6:	440b      	add	r3, r1
 8000ed8:	334d      	adds	r3, #77	@ 0x4d
 8000eda:	2202      	movs	r2, #2
 8000edc:	701a      	strb	r2, [r3, #0]
      hhcd->hc[chnum].ErrCnt++;
 8000ede:	78fa      	ldrb	r2, [r7, #3]
 8000ee0:	6879      	ldr	r1, [r7, #4]
 8000ee2:	4613      	mov	r3, r2
 8000ee4:	011b      	lsls	r3, r3, #4
 8000ee6:	1a9b      	subs	r3, r3, r2
 8000ee8:	009b      	lsls	r3, r3, #2
 8000eea:	440b      	add	r3, r1
 8000eec:	3344      	adds	r3, #68	@ 0x44
 8000eee:	681b      	ldr	r3, [r3, #0]
 8000ef0:	1c59      	adds	r1, r3, #1
 8000ef2:	6878      	ldr	r0, [r7, #4]
 8000ef4:	4613      	mov	r3, r2
 8000ef6:	011b      	lsls	r3, r3, #4
 8000ef8:	1a9b      	subs	r3, r3, r2
 8000efa:	009b      	lsls	r3, r3, #2
 8000efc:	4403      	add	r3, r0
 8000efe:	3344      	adds	r3, #68	@ 0x44
 8000f00:	6019      	str	r1, [r3, #0]
      if (hhcd->hc[chnum].ErrCnt > 2U)
 8000f02:	78fa      	ldrb	r2, [r7, #3]
 8000f04:	6879      	ldr	r1, [r7, #4]
 8000f06:	4613      	mov	r3, r2
 8000f08:	011b      	lsls	r3, r3, #4
 8000f0a:	1a9b      	subs	r3, r3, r2
 8000f0c:	009b      	lsls	r3, r3, #2
 8000f0e:	440b      	add	r3, r1
 8000f10:	3344      	adds	r3, #68	@ 0x44
 8000f12:	681b      	ldr	r3, [r3, #0]
 8000f14:	2b02      	cmp	r3, #2
 8000f16:	d943      	bls.n	8000fa0 <HCD_HC_IN_IRQHandler+0x678>
      {
        hhcd->hc[chnum].ErrCnt = 0U;
 8000f18:	78fa      	ldrb	r2, [r7, #3]
 8000f1a:	6879      	ldr	r1, [r7, #4]
 8000f1c:	4613      	mov	r3, r2
 8000f1e:	011b      	lsls	r3, r3, #4
 8000f20:	1a9b      	subs	r3, r3, r2
 8000f22:	009b      	lsls	r3, r3, #2
 8000f24:	440b      	add	r3, r1
 8000f26:	3344      	adds	r3, #68	@ 0x44
 8000f28:	2200      	movs	r2, #0
 8000f2a:	601a      	str	r2, [r3, #0]

        if (hhcd->hc[chnum].do_ssplit == 1U)
 8000f2c:	78fa      	ldrb	r2, [r7, #3]
 8000f2e:	6879      	ldr	r1, [r7, #4]
 8000f30:	4613      	mov	r3, r2
 8000f32:	011b      	lsls	r3, r3, #4
 8000f34:	1a9b      	subs	r3, r3, r2
 8000f36:	009b      	lsls	r3, r3, #2
 8000f38:	440b      	add	r3, r1
 8000f3a:	331a      	adds	r3, #26
 8000f3c:	781b      	ldrb	r3, [r3, #0]
 8000f3e:	2b01      	cmp	r3, #1
 8000f40:	d123      	bne.n	8000f8a <HCD_HC_IN_IRQHandler+0x662>
        {
          hhcd->hc[chnum].do_csplit = 0U;
 8000f42:	78fa      	ldrb	r2, [r7, #3]
 8000f44:	6879      	ldr	r1, [r7, #4]
 8000f46:	4613      	mov	r3, r2
 8000f48:	011b      	lsls	r3, r3, #4
 8000f4a:	1a9b      	subs	r3, r3, r2
 8000f4c:	009b      	lsls	r3, r3, #2
 8000f4e:	440b      	add	r3, r1
 8000f50:	331b      	adds	r3, #27
 8000f52:	2200      	movs	r2, #0
 8000f54:	701a      	strb	r2, [r3, #0]
          hhcd->hc[chnum].ep_ss_schedule = 0U;
 8000f56:	78fa      	ldrb	r2, [r7, #3]
 8000f58:	6879      	ldr	r1, [r7, #4]
 8000f5a:	4613      	mov	r3, r2
 8000f5c:	011b      	lsls	r3, r3, #4
 8000f5e:	1a9b      	subs	r3, r3, r2
 8000f60:	009b      	lsls	r3, r3, #2
 8000f62:	440b      	add	r3, r1
 8000f64:	331c      	adds	r3, #28
 8000f66:	2200      	movs	r2, #0
 8000f68:	701a      	strb	r2, [r3, #0]
          __HAL_HCD_CLEAR_HC_CSPLT(chnum);
 8000f6a:	78fb      	ldrb	r3, [r7, #3]
 8000f6c:	015a      	lsls	r2, r3, #5
 8000f6e:	693b      	ldr	r3, [r7, #16]
 8000f70:	4413      	add	r3, r2
 8000f72:	f503 63a0 	add.w	r3, r3, #1280	@ 0x500
 8000f76:	685b      	ldr	r3, [r3, #4]
 8000f78:	78fa      	ldrb	r2, [r7, #3]
 8000f7a:	0151      	lsls	r1, r2, #5
 8000f7c:	693a      	ldr	r2, [r7, #16]
 8000f7e:	440a      	add	r2, r1
 8000f80:	f502 62a0 	add.w	r2, r2, #1280	@ 0x500
 8000f84:	f423 3380 	bic.w	r3, r3, #65536	@ 0x10000
 8000f88:	6053      	str	r3, [r2, #4]
        }

        hhcd->hc[chnum].urb_state = URB_ERROR;
 8000f8a:	78fa      	ldrb	r2, [r7, #3]
 8000f8c:	6879      	ldr	r1, [r7, #4]
 8000f8e:	4613      	mov	r3, r2
 8000f90:	011b      	lsls	r3, r3, #4
 8000f92:	1a9b      	subs	r3, r3, r2
 8000f94:	009b      	lsls	r3, r3, #2
 8000f96:	440b      	add	r3, r1
 8000f98:	334c      	adds	r3, #76	@ 0x4c
 8000f9a:	2204      	movs	r2, #4
 8000f9c:	701a      	strb	r2, [r3, #0]
      if (hhcd->hc[chnum].ErrCnt > 2U)
 8000f9e:	e229      	b.n	80013f4 <HCD_HC_IN_IRQHandler+0xacc>
      }
      else
      {
        hhcd->hc[chnum].urb_state = URB_NOTREADY;
 8000fa0:	78fa      	ldrb	r2, [r7, #3]
 8000fa2:	6879      	ldr	r1, [r7, #4]
 8000fa4:	4613      	mov	r3, r2
 8000fa6:	011b      	lsls	r3, r3, #4
 8000fa8:	1a9b      	subs	r3, r3, r2
 8000faa:	009b      	lsls	r3, r3, #2
 8000fac:	440b      	add	r3, r1
 8000fae:	334c      	adds	r3, #76	@ 0x4c
 8000fb0:	2202      	movs	r2, #2
 8000fb2:	701a      	strb	r2, [r3, #0]

        if ((hhcd->hc[chnum].ep_type == EP_TYPE_CTRL) ||
 8000fb4:	78fa      	ldrb	r2, [r7, #3]
 8000fb6:	6879      	ldr	r1, [r7, #4]
 8000fb8:	4613      	mov	r3, r2
 8000fba:	011b      	lsls	r3, r3, #4
 8000fbc:	1a9b      	subs	r3, r3, r2
 8000fbe:	009b      	lsls	r3, r3, #2
 8000fc0:	440b      	add	r3, r1
 8000fc2:	3326      	adds	r3, #38	@ 0x26
 8000fc4:	781b      	ldrb	r3, [r3, #0]
 8000fc6:	2b00      	cmp	r3, #0
 8000fc8:	d00b      	beq.n	8000fe2 <HCD_HC_IN_IRQHandler+0x6ba>
            (hhcd->hc[chnum].ep_type == EP_TYPE_BULK))
 8000fca:	78fa      	ldrb	r2, [r7, #3]
 8000fcc:	6879      	ldr	r1, [r7, #4]
 8000fce:	4613      	mov	r3, r2
 8000fd0:	011b      	lsls	r3, r3, #4
 8000fd2:	1a9b      	subs	r3, r3, r2
 8000fd4:	009b      	lsls	r3, r3, #2
 8000fd6:	440b      	add	r3, r1
 8000fd8:	3326      	adds	r3, #38	@ 0x26
 8000fda:	781b      	ldrb	r3, [r3, #0]
        if ((hhcd->hc[chnum].ep_type == EP_TYPE_CTRL) ||
 8000fdc:	2b02      	cmp	r3, #2
 8000fde:	f040 8209 	bne.w	80013f4 <HCD_HC_IN_IRQHandler+0xacc>
        {
          /* re-activate the channel */
          tmpreg = USBx_HC(chnum)->HCCHAR;
 8000fe2:	78fb      	ldrb	r3, [r7, #3]
 8000fe4:	015a      	lsls	r2, r3, #5
 8000fe6:	693b      	ldr	r3, [r7, #16]
 8000fe8:	4413      	add	r3, r2
 8000fea:	f503 63a0 	add.w	r3, r3, #1280	@ 0x500
 8000fee:	681b      	ldr	r3, [r3, #0]
 8000ff0:	60fb      	str	r3, [r7, #12]
          tmpreg &= ~USB_OTG_HCCHAR_CHDIS;
 8000ff2:	68fb      	ldr	r3, [r7, #12]
 8000ff4:	f023 4380 	bic.w	r3, r3, #1073741824	@ 0x40000000
 8000ff8:	60fb      	str	r3, [r7, #12]
          tmpreg |= USB_OTG_HCCHAR_CHENA;
 8000ffa:	68fb      	ldr	r3, [r7, #12]
 8000ffc:	f043 4300 	orr.w	r3, r3, #2147483648	@ 0x80000000
 8001000:	60fb      	str	r3, [r7, #12]
          USBx_HC(chnum)->HCCHAR = tmpreg;
 8001002:	78fb      	ldrb	r3, [r7, #3]
 8001004:	015a      	lsls	r2, r3, #5
 8001006:	693b      	ldr	r3, [r7, #16]
 8001008:	4413      	add	r3, r2
 800100a:	f503 63a0 	add.w	r3, r3, #1280	@ 0x500
 800100e:	461a      	mov	r2, r3
 8001010:	68fb      	ldr	r3, [r7, #12]
 8001012:	6013      	str	r3, [r2, #0]
      if (hhcd->hc[chnum].ErrCnt > 2U)
 8001014:	e1ee      	b.n	80013f4 <HCD_HC_IN_IRQHandler+0xacc>
        }
      }
    }
    else if (hhcd->hc[chnum].state == HC_NYET)
 8001016:	78fa      	ldrb	r2, [r7, #3]
 8001018:	6879      	ldr	r1, [r7, #4]
 800101a:	4613      	mov	r3, r2
 800101c:	011b      	lsls	r3, r3, #4
 800101e:	1a9b      	subs	r3, r3, r2
 8001020:	009b      	lsls	r3, r3, #2
 8001022:	440b      	add	r3, r1
 8001024:	334d      	adds	r3, #77	@ 0x4d
 8001026:	781b      	ldrb	r3, [r3, #0]
 8001028:	2b05      	cmp	r3, #5
 800102a:	f040 80c8 	bne.w	80011be <HCD_HC_IN_IRQHandler+0x896>
    {
      hhcd->hc[chnum].state = HC_HALTED;
 800102e:	78fa      	ldrb	r2, [r7, #3]
 8001030:	6879      	ldr	r1, [r7, #4]
 8001032:	4613      	mov	r3, r2
 8001034:	011b      	lsls	r3, r3, #4
 8001036:	1a9b      	subs	r3, r3, r2
 8001038:	009b      	lsls	r3, r3, #2
 800103a:	440b      	add	r3, r1
 800103c:	334d      	adds	r3, #77	@ 0x4d
 800103e:	2202      	movs	r2, #2
 8001040:	701a      	strb	r2, [r3, #0]

      if (hhcd->hc[chnum].do_csplit == 1U)
 8001042:	78fa      	ldrb	r2, [r7, #3]
 8001044:	6879      	ldr	r1, [r7, #4]
 8001046:	4613      	mov	r3, r2
 8001048:	011b      	lsls	r3, r3, #4
 800104a:	1a9b      	subs	r3, r3, r2
 800104c:	009b      	lsls	r3, r3, #2
 800104e:	440b      	add	r3, r1
 8001050:	331b      	adds	r3, #27
 8001052:	781b      	ldrb	r3, [r3, #0]
 8001054:	2b01      	cmp	r3, #1
 8001056:	f040 81ce 	bne.w	80013f6 <HCD_HC_IN_IRQHandler+0xace>
      {
        if (hhcd->hc[chnum].ep_type == EP_TYPE_INTR)
 800105a:	78fa      	ldrb	r2, [r7, #3]
 800105c:	6879      	ldr	r1, [r7, #4]
 800105e:	4613      	mov	r3, r2
 8001060:	011b      	lsls	r3, r3, #4
 8001062:	1a9b      	subs	r3, r3, r2
 8001064:	009b      	lsls	r3, r3, #2
 8001066:	440b      	add	r3, r1
 8001068:	3326      	adds	r3, #38	@ 0x26
 800106a:	781b      	ldrb	r3, [r3, #0]
 800106c:	2b03      	cmp	r3, #3
 800106e:	d16b      	bne.n	8001148 <HCD_HC_IN_IRQHandler+0x820>
        {
          hhcd->hc[chnum].NyetErrCnt++;
 8001070:	78fa      	ldrb	r2, [r7, #3]
 8001072:	6879      	ldr	r1, [r7, #4]
 8001074:	4613      	mov	r3, r2
 8001076:	011b      	lsls	r3, r3, #4
 8001078:	1a9b      	subs	r3, r3, r2
 800107a:	009b      	lsls	r3, r3, #2
 800107c:	440b      	add	r3, r1
 800107e:	3348      	adds	r3, #72	@ 0x48
 8001080:	681b      	ldr	r3, [r3, #0]
 8001082:	1c59      	adds	r1, r3, #1
 8001084:	6878      	ldr	r0, [r7, #4]
 8001086:	4613      	mov	r3, r2
 8001088:	011b      	lsls	r3, r3, #4
 800108a:	1a9b      	subs	r3, r3, r2
 800108c:	009b      	lsls	r3, r3, #2
 800108e:	4403      	add	r3, r0
 8001090:	3348      	adds	r3, #72	@ 0x48
 8001092:	6019      	str	r1, [r3, #0]
          if (hhcd->hc[chnum].NyetErrCnt > 2U)
 8001094:	78fa      	ldrb	r2, [r7, #3]
 8001096:	6879      	ldr	r1, [r7, #4]
 8001098:	4613      	mov	r3, r2
 800109a:	011b      	lsls	r3, r3, #4
 800109c:	1a9b      	subs	r3, r3, r2
 800109e:	009b      	lsls	r3, r3, #2
 80010a0:	440b      	add	r3, r1
 80010a2:	3348      	adds	r3, #72	@ 0x48
 80010a4:	681b      	ldr	r3, [r3, #0]
 80010a6:	2b02      	cmp	r3, #2
 80010a8:	d943      	bls.n	8001132 <HCD_HC_IN_IRQHandler+0x80a>
          {
            hhcd->hc[chnum].NyetErrCnt = 0U;
 80010aa:	78fa      	ldrb	r2, [r7, #3]
 80010ac:	6879      	ldr	r1, [r7, #4]
 80010ae:	4613      	mov	r3, r2
 80010b0:	011b      	lsls	r3, r3, #4
 80010b2:	1a9b      	subs	r3, r3, r2
 80010b4:	009b      	lsls	r3, r3, #2
 80010b6:	440b      	add	r3, r1
 80010b8:	3348      	adds	r3, #72	@ 0x48
 80010ba:	2200      	movs	r2, #0
 80010bc:	601a      	str	r2, [r3, #0]
            hhcd->hc[chnum].do_csplit = 0U;
 80010be:	78fa      	ldrb	r2, [r7, #3]
 80010c0:	6879      	ldr	r1, [r7, #4]
 80010c2:	4613      	mov	r3, r2
 80010c4:	011b      	lsls	r3, r3, #4
 80010c6:	1a9b      	subs	r3, r3, r2
 80010c8:	009b      	lsls	r3, r3, #2
 80010ca:	440b      	add	r3, r1
 80010cc:	331b      	adds	r3, #27
 80010ce:	2200      	movs	r2, #0
 80010d0:	701a      	strb	r2, [r3, #0]

            if (hhcd->hc[chnum].ErrCnt < 3U)
 80010d2:	78fa      	ldrb	r2, [r7, #3]
 80010d4:	6879      	ldr	r1, [r7, #4]
 80010d6:	4613      	mov	r3, r2
 80010d8:	011b      	lsls	r3, r3, #4
 80010da:	1a9b      	subs	r3, r3, r2
 80010dc:	009b      	lsls	r3, r3, #2
 80010de:	440b      	add	r3, r1
 80010e0:	3344      	adds	r3, #68	@ 0x44
 80010e2:	681b      	ldr	r3, [r3, #0]
 80010e4:	2b02      	cmp	r3, #2
 80010e6:	d809      	bhi.n	80010fc <HCD_HC_IN_IRQHandler+0x7d4>
            {
              hhcd->hc[chnum].ep_ss_schedule = 1U;
 80010e8:	78fa      	ldrb	r2, [r7, #3]
 80010ea:	6879      	ldr	r1, [r7, #4]
 80010ec:	4613      	mov	r3, r2
 80010ee:	011b      	lsls	r3, r3, #4
 80010f0:	1a9b      	subs	r3, r3, r2
 80010f2:	009b      	lsls	r3, r3, #2
 80010f4:	440b      	add	r3, r1
 80010f6:	331c      	adds	r3, #28
 80010f8:	2201      	movs	r2, #1
 80010fa:	701a      	strb	r2, [r3, #0]
            }
            __HAL_HCD_CLEAR_HC_CSPLT(chnum);
 80010fc:	78fb      	ldrb	r3, [r7, #3]
 80010fe:	015a      	lsls	r2, r3, #5
 8001100:	693b      	ldr	r3, [r7, #16]
 8001102:	4413      	add	r3, r2
 8001104:	f503 63a0 	add.w	r3, r3, #1280	@ 0x500
 8001108:	685b      	ldr	r3, [r3, #4]
 800110a:	78fa      	ldrb	r2, [r7, #3]
 800110c:	0151      	lsls	r1, r2, #5
 800110e:	693a      	ldr	r2, [r7, #16]
 8001110:	440a      	add	r2, r1
 8001112:	f502 62a0 	add.w	r2, r2, #1280	@ 0x500
 8001116:	f423 3380 	bic.w	r3, r3, #65536	@ 0x10000
 800111a:	6053      	str	r3, [r2, #4]
            hhcd->hc[chnum].urb_state = URB_ERROR;
 800111c:	78fa      	ldrb	r2, [r7, #3]
 800111e:	6879      	ldr	r1, [r7, #4]
 8001120:	4613      	mov	r3, r2
 8001122:	011b      	lsls	r3, r3, #4
 8001124:	1a9b      	subs	r3, r3, r2
 8001126:	009b      	lsls	r3, r3, #2
 8001128:	440b      	add	r3, r1
 800112a:	334c      	adds	r3, #76	@ 0x4c
 800112c:	2204      	movs	r2, #4
 800112e:	701a      	strb	r2, [r3, #0]
 8001130:	e014      	b.n	800115c <HCD_HC_IN_IRQHandler+0x834>
          }
          else
          {
            hhcd->hc[chnum].urb_state = URB_NOTREADY;
 8001132:	78fa      	ldrb	r2, [r7, #3]
 8001134:	6879      	ldr	r1, [r7, #4]
 8001136:	4613      	mov	r3, r2
 8001138:	011b      	lsls	r3, r3, #4
 800113a:	1a9b      	subs	r3, r3, r2
 800113c:	009b      	lsls	r3, r3, #2
 800113e:	440b      	add	r3, r1
 8001140:	334c      	adds	r3, #76	@ 0x4c
 8001142:	2202      	movs	r2, #2
 8001144:	701a      	strb	r2, [r3, #0]
 8001146:	e009      	b.n	800115c <HCD_HC_IN_IRQHandler+0x834>
          }
        }
        else
        {
          hhcd->hc[chnum].urb_state = URB_NOTREADY;
 8001148:	78fa      	ldrb	r2, [r7, #3]
 800114a:	6879      	ldr	r1, [r7, #4]
 800114c:	4613      	mov	r3, r2
 800114e:	011b      	lsls	r3, r3, #4
 8001150:	1a9b      	subs	r3, r3, r2
 8001152:	009b      	lsls	r3, r3, #2
 8001154:	440b      	add	r3, r1
 8001156:	334c      	adds	r3, #76	@ 0x4c
 8001158:	2202      	movs	r2, #2
 800115a:	701a      	strb	r2, [r3, #0]
        }

        if ((hhcd->hc[chnum].ep_type == EP_TYPE_CTRL) ||
 800115c:	78fa      	ldrb	r2, [r7, #3]
 800115e:	6879      	ldr	r1, [r7, #4]
 8001160:	4613      	mov	r3, r2
 8001162:	011b      	lsls	r3, r3, #4
 8001164:	1a9b      	subs	r3, r3, r2
 8001166:	009b      	lsls	r3, r3, #2
 8001168:	440b      	add	r3, r1
 800116a:	3326      	adds	r3, #38	@ 0x26
 800116c:	781b      	ldrb	r3, [r3, #0]
 800116e:	2b00      	cmp	r3, #0
 8001170:	d00b      	beq.n	800118a <HCD_HC_IN_IRQHandler+0x862>
            (hhcd->hc[chnum].ep_type == EP_TYPE_BULK))
 8001172:	78fa      	ldrb	r2, [r7, #3]
 8001174:	6879      	ldr	r1, [r7, #4]
 8001176:	4613      	mov	r3, r2
 8001178:	011b      	lsls	r3, r3, #4
 800117a:	1a9b      	subs	r3, r3, r2
 800117c:	009b      	lsls	r3, r3, #2
 800117e:	440b      	add	r3, r1
 8001180:	3326      	adds	r3, #38	@ 0x26
 8001182:	781b      	ldrb	r3, [r3, #0]
        if ((hhcd->hc[chnum].ep_type == EP_TYPE_CTRL) ||
 8001184:	2b02      	cmp	r3, #2
 8001186:	f040 8136 	bne.w	80013f6 <HCD_HC_IN_IRQHandler+0xace>
        {
          /* re-activate the channel */
          tmpreg = USBx_HC(chnum)->HCCHAR;
 800118a:	78fb      	ldrb	r3, [r7, #3]
 800118c:	015a      	lsls	r2, r3, #5
 800118e:	693b      	ldr	r3, [r7, #16]
 8001190:	4413      	add	r3, r2
 8001192:	f503 63a0 	add.w	r3, r3, #1280	@ 0x500
 8001196:	681b      	ldr	r3, [r3, #0]
 8001198:	60fb      	str	r3, [r7, #12]
          tmpreg &= ~USB_OTG_HCCHAR_CHDIS;
 800119a:	68fb      	ldr	r3, [r7, #12]
 800119c:	f023 4380 	bic.w	r3, r3, #1073741824	@ 0x40000000
 80011a0:	60fb      	str	r3, [r7, #12]
          tmpreg |= USB_OTG_HCCHAR_CHENA;
 80011a2:	68fb      	ldr	r3, [r7, #12]
 80011a4:	f043 4300 	orr.w	r3, r3, #2147483648	@ 0x80000000
 80011a8:	60fb      	str	r3, [r7, #12]
          USBx_HC(chnum)->HCCHAR = tmpreg;
 80011aa:	78fb      	ldrb	r3, [r7, #3]
 80011ac:	015a      	lsls	r2, r3, #5
 80011ae:	693b      	ldr	r3, [r7, #16]
 80011b0:	4413      	add	r3, r2
 80011b2:	f503 63a0 	add.w	r3, r3, #1280	@ 0x500
 80011b6:	461a      	mov	r2, r3
 80011b8:	68fb      	ldr	r3, [r7, #12]
 80011ba:	6013      	str	r3, [r2, #0]
 80011bc:	e11b      	b.n	80013f6 <HCD_HC_IN_IRQHandler+0xace>
        }
      }
    }
    else if (hhcd->hc[chnum].state == HC_ACK)
 80011be:	78fa      	ldrb	r2, [r7, #3]
 80011c0:	6879      	ldr	r1, [r7, #4]
 80011c2:	4613      	mov	r3, r2
 80011c4:	011b      	lsls	r3, r3, #4
 80011c6:	1a9b      	subs	r3, r3, r2
 80011c8:	009b      	lsls	r3, r3, #2
 80011ca:	440b      	add	r3, r1
 80011cc:	334d      	adds	r3, #77	@ 0x4d
 80011ce:	781b      	ldrb	r3, [r3, #0]
 80011d0:	2b03      	cmp	r3, #3
 80011d2:	f040 8081 	bne.w	80012d8 <HCD_HC_IN_IRQHandler+0x9b0>
    {
      hhcd->hc[chnum].state = HC_HALTED;
 80011d6:	78fa      	ldrb	r2, [r7, #3]
 80011d8:	6879      	ldr	r1, [r7, #4]
 80011da:	4613      	mov	r3, r2
 80011dc:	011b      	lsls	r3, r3, #4
 80011de:	1a9b      	subs	r3, r3, r2
 80011e0:	009b      	lsls	r3, r3, #2
 80011e2:	440b      	add	r3, r1
 80011e4:	334d      	adds	r3, #77	@ 0x4d
 80011e6:	2202      	movs	r2, #2
 80011e8:	701a      	strb	r2, [r3, #0]

      if (hhcd->hc[chnum].do_csplit == 1U)
 80011ea:	78fa      	ldrb	r2, [r7, #3]
 80011ec:	6879      	ldr	r1, [r7, #4]
 80011ee:	4613      	mov	r3, r2
 80011f0:	011b      	lsls	r3, r3, #4
 80011f2:	1a9b      	subs	r3, r3, r2
 80011f4:	009b      	lsls	r3, r3, #2
 80011f6:	440b      	add	r3, r1
 80011f8:	331b      	adds	r3, #27
 80011fa:	781b      	ldrb	r3, [r3, #0]
 80011fc:	2b01      	cmp	r3, #1
 80011fe:	f040 80fa 	bne.w	80013f6 <HCD_HC_IN_IRQHandler+0xace>
      {
        hhcd->hc[chnum].urb_state = URB_NOTREADY;
 8001202:	78fa      	ldrb	r2, [r7, #3]
 8001204:	6879      	ldr	r1, [r7, #4]
 8001206:	4613      	mov	r3, r2
 8001208:	011b      	lsls	r3, r3, #4
 800120a:	1a9b      	subs	r3, r3, r2
 800120c:	009b      	lsls	r3, r3, #2
 800120e:	440b      	add	r3, r1
 8001210:	334c      	adds	r3, #76	@ 0x4c
 8001212:	2202      	movs	r2, #2
 8001214:	701a      	strb	r2, [r3, #0]

        /* Set Complete split and re-activate the channel */
        USBx_HC(chnum)->HCSPLT |= USB_OTG_HCSPLT_COMPLSPLT;
 8001216:	78fb      	ldrb	r3, [r7, #3]
 8001218:	015a      	lsls	r2, r3, #5
 800121a:	693b      	ldr	r3, [r7, #16]
 800121c:	4413      	add	r3, r2
 800121e:	f503 63a0 	add.w	r3, r3, #1280	@ 0x500
 8001222:	685b      	ldr	r3, [r3, #4]
 8001224:	78fa      	ldrb	r2, [r7, #3]
 8001226:	0151      	lsls	r1, r2, #5
 8001228:	693a      	ldr	r2, [r7, #16]
 800122a:	440a      	add	r2, r1
 800122c:	f502 62a0 	add.w	r2, r2, #1280	@ 0x500
 8001230:	f443 3380 	orr.w	r3, r3, #65536	@ 0x10000
 8001234:	6053      	str	r3, [r2, #4]
        USBx_HC(chnum)->HCINTMSK |= USB_OTG_HCINTMSK_NYET;
 8001236:	78fb      	ldrb	r3, [r7, #3]
 8001238:	015a      	lsls	r2, r3, #5
 800123a:	693b      	ldr	r3, [r7, #16]
 800123c:	4413      	add	r3, r2
 800123e:	f503 63a0 	add.w	r3, r3, #1280	@ 0x500
 8001242:	68db      	ldr	r3, [r3, #12]
 8001244:	78fa      	ldrb	r2, [r7, #3]
 8001246:	0151      	lsls	r1, r2, #5
 8001248:	693a      	ldr	r2, [r7, #16]
 800124a:	440a      	add	r2, r1
 800124c:	f502 62a0 	add.w	r2, r2, #1280	@ 0x500
 8001250:	f043 0340 	orr.w	r3, r3, #64	@ 0x40
 8001254:	60d3      	str	r3, [r2, #12]
        USBx_HC(chnum)->HCINTMSK &= ~USB_OTG_HCINT_ACK;
 8001256:	78fb      	ldrb	r3, [r7, #3]
 8001258:	015a      	lsls	r2, r3, #5
 800125a:	693b      	ldr	r3, [r7, #16]
 800125c:	4413      	add	r3, r2
 800125e:	f503 63a0 	add.w	r3, r3, #1280	@ 0x500
 8001262:	68db      	ldr	r3, [r3, #12]
 8001264:	78fa      	ldrb	r2, [r7, #3]
 8001266:	0151      	lsls	r1, r2, #5
 8001268:	693a      	ldr	r2, [r7, #16]
 800126a:	440a      	add	r2, r1
 800126c:	f502 62a0 	add.w	r2, r2, #1280	@ 0x500
 8001270:	f023 0320 	bic.w	r3, r3, #32
 8001274:	60d3      	str	r3, [r2, #12]

        if ((hhcd->hc[chnum].ep_type == EP_TYPE_CTRL) ||
 8001276:	78fa      	ldrb	r2, [r7, #3]
 8001278:	6879      	ldr	r1, [r7, #4]
 800127a:	4613      	mov	r3, r2
 800127c:	011b      	lsls	r3, r3, #4
 800127e:	1a9b      	subs	r3, r3, r2
 8001280:	009b      	lsls	r3, r3, #2
 8001282:	440b      	add	r3, r1
 8001284:	3326      	adds	r3, #38	@ 0x26
 8001286:	781b      	ldrb	r3, [r3, #0]
 8001288:	2b00      	cmp	r3, #0
 800128a:	d00b      	beq.n	80012a4 <HCD_HC_IN_IRQHandler+0x97c>
            (hhcd->hc[chnum].ep_type == EP_TYPE_BULK))
 800128c:	78fa      	ldrb	r2, [r7, #3]
 800128e:	6879      	ldr	r1, [r7, #4]
 8001290:	4613      	mov	r3, r2
 8001292:	011b      	lsls	r3, r3, #4
 8001294:	1a9b      	subs	r3, r3, r2
 8001296:	009b      	lsls	r3, r3, #2
 8001298:	440b      	add	r3, r1
 800129a:	3326      	adds	r3, #38	@ 0x26
 800129c:	781b      	ldrb	r3, [r3, #0]
        if ((hhcd->hc[chnum].ep_type == EP_TYPE_CTRL) ||
 800129e:	2b02      	cmp	r3, #2
 80012a0:	f040 80a9 	bne.w	80013f6 <HCD_HC_IN_IRQHandler+0xace>
        {
          /* re-activate the channel */
          tmpreg = USBx_HC(chnum)->HCCHAR;
 80012a4:	78fb      	ldrb	r3, [r7, #3]
 80012a6:	015a      	lsls	r2, r3, #5
 80012a8:	693b      	ldr	r3, [r7, #16]
 80012aa:	4413      	add	r3, r2
 80012ac:	f503 63a0 	add.w	r3, r3, #1280	@ 0x500
 80012b0:	681b      	ldr	r3, [r3, #0]
 80012b2:	60fb      	str	r3, [r7, #12]
          tmpreg &= ~USB_OTG_HCCHAR_CHDIS;
 80012b4:	68fb      	ldr	r3, [r7, #12]
 80012b6:	f023 4380 	bic.w	r3, r3, #1073741824	@ 0x40000000
 80012ba:	60fb      	str	r3, [r7, #12]
          tmpreg |= USB_OTG_HCCHAR_CHENA;
 80012bc:	68fb      	ldr	r3, [r7, #12]
 80012be:	f043 4300 	orr.w	r3, r3, #2147483648	@ 0x80000000
 80012c2:	60fb      	str	r3, [r7, #12]
          USBx_HC(chnum)->HCCHAR = tmpreg;
 80012c4:	78fb      	ldrb	r3, [r7, #3]
 80012c6:	015a      	lsls	r2, r3, #5
 80012c8:	693b      	ldr	r3, [r7, #16]
 80012ca:	4413      	add	r3, r2
 80012cc:	f503 63a0 	add.w	r3, r3, #1280	@ 0x500
 80012d0:	461a      	mov	r2, r3
 80012d2:	68fb      	ldr	r3, [r7, #12]
 80012d4:	6013      	str	r3, [r2, #0]
 80012d6:	e08e      	b.n	80013f6 <HCD_HC_IN_IRQHandler+0xace>
        }
      }
    }
    else if (hhcd->hc[chnum].state == HC_NAK)
 80012d8:	78fa      	ldrb	r2, [r7, #3]
 80012da:	6879      	ldr	r1, [r7, #4]
 80012dc:	4613      	mov	r3, r2
 80012de:	011b      	lsls	r3, r3, #4
 80012e0:	1a9b      	subs	r3, r3, r2
 80012e2:	009b      	lsls	r3, r3, #2
 80012e4:	440b      	add	r3, r1
 80012e6:	334d      	adds	r3, #77	@ 0x4d
 80012e8:	781b      	ldrb	r3, [r3, #0]
 80012ea:	2b04      	cmp	r3, #4
 80012ec:	d143      	bne.n	8001376 <HCD_HC_IN_IRQHandler+0xa4e>
    {
      hhcd->hc[chnum].state = HC_HALTED;
 80012ee:	78fa      	ldrb	r2, [r7, #3]
 80012f0:	6879      	ldr	r1, [r7, #4]
 80012f2:	4613      	mov	r3, r2
 80012f4:	011b      	lsls	r3, r3, #4
 80012f6:	1a9b      	subs	r3, r3, r2
 80012f8:	009b      	lsls	r3, r3, #2
 80012fa:	440b      	add	r3, r1
 80012fc:	334d      	adds	r3, #77	@ 0x4d
 80012fe:	2202      	movs	r2, #2
 8001300:	701a      	strb	r2, [r3, #0]
      hhcd->hc[chnum].urb_state = URB_NOTREADY;
 8001302:	78fa      	ldrb	r2, [r7, #3]
 8001304:	6879      	ldr	r1, [r7, #4]
 8001306:	4613      	mov	r3, r2
 8001308:	011b      	lsls	r3, r3, #4
 800130a:	1a9b      	subs	r3, r3, r2
 800130c:	009b      	lsls	r3, r3, #2
 800130e:	440b      	add	r3, r1
 8001310:	334c      	adds	r3, #76	@ 0x4c
 8001312:	2202      	movs	r2, #2
 8001314:	701a      	strb	r2, [r3, #0]

      if ((hhcd->hc[chnum].ep_type == EP_TYPE_CTRL) ||
 8001316:	78fa      	ldrb	r2, [r7, #3]
 8001318:	6879      	ldr	r1, [r7, #4]
 800131a:	4613      	mov	r3, r2
 800131c:	011b      	lsls	r3, r3, #4
 800131e:	1a9b      	subs	r3, r3, r2
 8001320:	009b      	lsls	r3, r3, #2
 8001322:	440b      	add	r3, r1
 8001324:	3326      	adds	r3, #38	@ 0x26
 8001326:	781b      	ldrb	r3, [r3, #0]
 8001328:	2b00      	cmp	r3, #0
 800132a:	d00a      	beq.n	8001342 <HCD_HC_IN_IRQHandler+0xa1a>
          (hhcd->hc[chnum].ep_type == EP_TYPE_BULK))
 800132c:	78fa      	ldrb	r2, [r7, #3]
 800132e:	6879      	ldr	r1, [r7, #4]
 8001330:	4613      	mov	r3, r2
 8001332:	011b      	lsls	r3, r3, #4
 8001334:	1a9b      	subs	r3, r3, r2
 8001336:	009b      	lsls	r3, r3, #2
 8001338:	440b      	add	r3, r1
 800133a:	3326      	adds	r3, #38	@ 0x26
 800133c:	781b      	ldrb	r3, [r3, #0]
      if ((hhcd->hc[chnum].ep_type == EP_TYPE_CTRL) ||
 800133e:	2b02      	cmp	r3, #2
 8001340:	d159      	bne.n	80013f6 <HCD_HC_IN_IRQHandler+0xace>
      {
        /* re-activate the channel */
        tmpreg = USBx_HC(chnum)->HCCHAR;
 8001342:	78fb      	ldrb	r3, [r7, #3]
 8001344:	015a      	lsls	r2, r3, #5
 8001346:	693b      	ldr	r3, [r7, #16]
 8001348:	4413      	add	r3, r2
 800134a:	f503 63a0 	add.w	r3, r3, #1280	@ 0x500
 800134e:	681b      	ldr	r3, [r3, #0]
 8001350:	60fb      	str	r3, [r7, #12]
        tmpreg &= ~USB_OTG_HCCHAR_CHDIS;
 8001352:	68fb      	ldr	r3, [r7, #12]
 8001354:	f023 4380 	bic.w	r3, r3, #1073741824	@ 0x40000000
 8001358:	60fb      	str	r3, [r7, #12]
        tmpreg |= USB_OTG_HCCHAR_CHENA;
 800135a:	68fb      	ldr	r3, [r7, #12]
 800135c:	f043 4300 	orr.w	r3, r3, #2147483648	@ 0x80000000
 8001360:	60fb      	str	r3, [r7, #12]
        USBx_HC(chnum)->HCCHAR = tmpreg;
 8001362:	78fb      	ldrb	r3, [r7, #3]
 8001364:	015a      	lsls	r2, r3, #5
 8001366:	693b      	ldr	r3, [r7, #16]
 8001368:	4413      	add	r3, r2
 800136a:	f503 63a0 	add.w	r3, r3, #1280	@ 0x500
 800136e:	461a      	mov	r2, r3
 8001370:	68fb      	ldr	r3, [r7, #12]
 8001372:	6013      	str	r3, [r2, #0]
 8001374:	e03f      	b.n	80013f6 <HCD_HC_IN_IRQHandler+0xace>
      }
    }
    else if (hhcd->hc[chnum].state == HC_BBLERR)
 8001376:	78fa      	ldrb	r2, [r7, #3]
 8001378:	6879      	ldr	r1, [r7, #4]
 800137a:	4613      	mov	r3, r2
 800137c:	011b      	lsls	r3, r3, #4
 800137e:	1a9b      	subs	r3, r3, r2
 8001380:	009b      	lsls	r3, r3, #2
 8001382:	440b      	add	r3, r1
 8001384:	334d      	adds	r3, #77	@ 0x4d
 8001386:	781b      	ldrb	r3, [r3, #0]
 8001388:	2b08      	cmp	r3, #8
 800138a:	d126      	bne.n	80013da <HCD_HC_IN_IRQHandler+0xab2>
    {
      hhcd->hc[chnum].state = HC_HALTED;
 800138c:	78fa      	ldrb	r2, [r7, #3]
 800138e:	6879      	ldr	r1, [r7, #4]
 8001390:	4613      	mov	r3, r2
 8001392:	011b      	lsls	r3, r3, #4
 8001394:	1a9b      	subs	r3, r3, r2
 8001396:	009b      	lsls	r3, r3, #2
 8001398:	440b      	add	r3, r1
 800139a:	334d      	adds	r3, #77	@ 0x4d
 800139c:	2202      	movs	r2, #2
 800139e:	701a      	strb	r2, [r3, #0]
      hhcd->hc[chnum].ErrCnt++;
 80013a0:	78fa      	ldrb	r2, [r7, #3]
 80013a2:	6879      	ldr	r1, [r7, #4]
 80013a4:	4613      	mov	r3, r2
 80013a6:	011b      	lsls	r3, r3, #4
 80013a8:	1a9b      	subs	r3, r3, r2
 80013aa:	009b      	lsls	r3, r3, #2
 80013ac:	440b      	add	r3, r1
 80013ae:	3344      	adds	r3, #68	@ 0x44
 80013b0:	681b      	ldr	r3, [r3, #0]
 80013b2:	1c59      	adds	r1, r3, #1
 80013b4:	6878      	ldr	r0, [r7, #4]
 80013b6:	4613      	mov	r3, r2
 80013b8:	011b      	lsls	r3, r3, #4
 80013ba:	1a9b      	subs	r3, r3, r2
 80013bc:	009b      	lsls	r3, r3, #2
 80013be:	4403      	add	r3, r0
 80013c0:	3344      	adds	r3, #68	@ 0x44
 80013c2:	6019      	str	r1, [r3, #0]
      hhcd->hc[chnum].urb_state = URB_ERROR;
 80013c4:	78fa      	ldrb	r2, [r7, #3]
 80013c6:	6879      	ldr	r1, [r7, #4]
 80013c8:	4613      	mov	r3, r2
 80013ca:	011b      	lsls	r3, r3, #4
 80013cc:	1a9b      	subs	r3, r3, r2
 80013ce:	009b      	lsls	r3, r3, #2
 80013d0:	440b      	add	r3, r1
 80013d2:	334c      	adds	r3, #76	@ 0x4c
 80013d4:	2204      	movs	r2, #4
 80013d6:	701a      	strb	r2, [r3, #0]
 80013d8:	e00d      	b.n	80013f6 <HCD_HC_IN_IRQHandler+0xace>
    }
    else
    {
      if (hhcd->hc[chnum].state == HC_HALTED)
 80013da:	78fa      	ldrb	r2, [r7, #3]
 80013dc:	6879      	ldr	r1, [r7, #4]
 80013de:	4613      	mov	r3, r2
 80013e0:	011b      	lsls	r3, r3, #4
 80013e2:	1a9b      	subs	r3, r3, r2
 80013e4:	009b      	lsls	r3, r3, #2
 80013e6:	440b      	add	r3, r1
 80013e8:	334d      	adds	r3, #77	@ 0x4d
 80013ea:	781b      	ldrb	r3, [r3, #0]
 80013ec:	2b02      	cmp	r3, #2
 80013ee:	f000 8100 	beq.w	80015f2 <HCD_HC_IN_IRQHandler+0xcca>
 80013f2:	e000      	b.n	80013f6 <HCD_HC_IN_IRQHandler+0xace>
      if (hhcd->hc[chnum].ErrCnt > 2U)
 80013f4:	bf00      	nop
    }

#if (USE_HAL_HCD_REGISTER_CALLBACKS == 1U)
    hhcd->HC_NotifyURBChangeCallback(hhcd, chnum, hhcd->hc[chnum].urb_state);
#else
    HAL_HCD_HC_NotifyURBChange_Callback(hhcd, chnum, hhcd->hc[chnum].urb_state);
 80013f6:	78fa      	ldrb	r2, [r7, #3]
 80013f8:	6879      	ldr	r1, [r7, #4]
 80013fa:	4613      	mov	r3, r2
 80013fc:	011b      	lsls	r3, r3, #4
 80013fe:	1a9b      	subs	r3, r3, r2
 8001400:	009b      	lsls	r3, r3, #2
 8001402:	440b      	add	r3, r1
 8001404:	334c      	adds	r3, #76	@ 0x4c
 8001406:	781a      	ldrb	r2, [r3, #0]
 8001408:	78fb      	ldrb	r3, [r7, #3]
 800140a:	4619      	mov	r1, r3
 800140c:	6878      	ldr	r0, [r7, #4]
 800140e:	f7ff fa7e 	bl	800090e <HAL_HCD_HC_NotifyURBChange_Callback>
 8001412:	e0ef      	b.n	80015f4 <HCD_HC_IN_IRQHandler+0xccc>
#endif /* USE_HAL_HCD_REGISTER_CALLBACKS */
  }
  else if (__HAL_HCD_GET_CH_FLAG(hhcd, chnum, USB_OTG_HCINT_NYET))
 8001414:	687b      	ldr	r3, [r7, #4]
 8001416:	681b      	ldr	r3, [r3, #0]
 8001418:	78fa      	ldrb	r2, [r7, #3]
 800141a:	4611      	mov	r1, r2
 800141c:	4618      	mov	r0, r3
 800141e:	f000 ffc4 	bl	80023aa <USB_ReadChInterrupts>
 8001422:	4603      	mov	r3, r0
 8001424:	f003 0340 	and.w	r3, r3, #64	@ 0x40
 8001428:	2b40      	cmp	r3, #64	@ 0x40
 800142a:	d12f      	bne.n	800148c <HCD_HC_IN_IRQHandler+0xb64>
  {
    __HAL_HCD_CLEAR_HC_INT(chnum, USB_OTG_HCINT_NYET);
 800142c:	78fb      	ldrb	r3, [r7, #3]
 800142e:	015a      	lsls	r2, r3, #5
 8001430:	693b      	ldr	r3, [r7, #16]
 8001432:	4413      	add	r3, r2
 8001434:	f503 63a0 	add.w	r3, r3, #1280	@ 0x500
 8001438:	461a      	mov	r2, r3
 800143a:	2340      	movs	r3, #64	@ 0x40
 800143c:	6093      	str	r3, [r2, #8]
    hhcd->hc[chnum].state = HC_NYET;
 800143e:	78fa      	ldrb	r2, [r7, #3]
 8001440:	6879      	ldr	r1, [r7, #4]
 8001442:	4613      	mov	r3, r2
 8001444:	011b      	lsls	r3, r3, #4
 8001446:	1a9b      	subs	r3, r3, r2
 8001448:	009b      	lsls	r3, r3, #2
 800144a:	440b      	add	r3, r1
 800144c:	334d      	adds	r3, #77	@ 0x4d
 800144e:	2205      	movs	r2, #5
 8001450:	701a      	strb	r2, [r3, #0]

    if (hhcd->hc[chnum].do_ssplit == 0U)
 8001452:	78fa      	ldrb	r2, [r7, #3]
 8001454:	6879      	ldr	r1, [r7, #4]
 8001456:	4613      	mov	r3, r2
 8001458:	011b      	lsls	r3, r3, #4
 800145a:	1a9b      	subs	r3, r3, r2
 800145c:	009b      	lsls	r3, r3, #2
 800145e:	440b      	add	r3, r1
 8001460:	331a      	adds	r3, #26
 8001462:	781b      	ldrb	r3, [r3, #0]
 8001464:	2b00      	cmp	r3, #0
 8001466:	d109      	bne.n	800147c <HCD_HC_IN_IRQHandler+0xb54>
    {
      hhcd->hc[chnum].ErrCnt = 0U;
 8001468:	78fa      	ldrb	r2, [r7, #3]
 800146a:	6879      	ldr	r1, [r7, #4]
 800146c:	4613      	mov	r3, r2
 800146e:	011b      	lsls	r3, r3, #4
 8001470:	1a9b      	subs	r3, r3, r2
 8001472:	009b      	lsls	r3, r3, #2
 8001474:	440b      	add	r3, r1
 8001476:	3344      	adds	r3, #68	@ 0x44
 8001478:	2200      	movs	r2, #0
 800147a:	601a      	str	r2, [r3, #0]
    }

    (void)USB_HC_Halt(hhcd->Instance, chnum);
 800147c:	687b      	ldr	r3, [r7, #4]
 800147e:	681b      	ldr	r3, [r3, #0]
 8001480:	78fa      	ldrb	r2, [r7, #3]
 8001482:	4611      	mov	r1, r2
 8001484:	4618      	mov	r0, r3
 8001486:	f001 f809 	bl	800249c <USB_HC_Halt>
 800148a:	e0b3      	b.n	80015f4 <HCD_HC_IN_IRQHandler+0xccc>
  }
  else if (__HAL_HCD_GET_CH_FLAG(hhcd, chnum, USB_OTG_HCINT_NAK))
 800148c:	687b      	ldr	r3, [r7, #4]
 800148e:	681b      	ldr	r3, [r3, #0]
 8001490:	78fa      	ldrb	r2, [r7, #3]
 8001492:	4611      	mov	r1, r2
 8001494:	4618      	mov	r0, r3
 8001496:	f000 ff88 	bl	80023aa <USB_ReadChInterrupts>
 800149a:	4603      	mov	r3, r0
 800149c:	f003 0310 	and.w	r3, r3, #16
 80014a0:	2b10      	cmp	r3, #16
 80014a2:	f040 80a7 	bne.w	80015f4 <HCD_HC_IN_IRQHandler+0xccc>
  {
    if (hhcd->hc[chnum].ep_type == EP_TYPE_INTR)
 80014a6:	78fa      	ldrb	r2, [r7, #3]
 80014a8:	6879      	ldr	r1, [r7, #4]
 80014aa:	4613      	mov	r3, r2
 80014ac:	011b      	lsls	r3, r3, #4
 80014ae:	1a9b      	subs	r3, r3, r2
 80014b0:	009b      	lsls	r3, r3, #2
 80014b2:	440b      	add	r3, r1
 80014b4:	3326      	adds	r3, #38	@ 0x26
 80014b6:	781b      	ldrb	r3, [r3, #0]
 80014b8:	2b03      	cmp	r3, #3
 80014ba:	d11b      	bne.n	80014f4 <HCD_HC_IN_IRQHandler+0xbcc>
    {
      hhcd->hc[chnum].ErrCnt = 0U;
 80014bc:	78fa      	ldrb	r2, [r7, #3]
 80014be:	6879      	ldr	r1, [r7, #4]
 80014c0:	4613      	mov	r3, r2
 80014c2:	011b      	lsls	r3, r3, #4
 80014c4:	1a9b      	subs	r3, r3, r2
 80014c6:	009b      	lsls	r3, r3, #2
 80014c8:	440b      	add	r3, r1
 80014ca:	3344      	adds	r3, #68	@ 0x44
 80014cc:	2200      	movs	r2, #0
 80014ce:	601a      	str	r2, [r3, #0]
      hhcd->hc[chnum].state = HC_NAK;
 80014d0:	78fa      	ldrb	r2, [r7, #3]
 80014d2:	6879      	ldr	r1, [r7, #4]
 80014d4:	4613      	mov	r3, r2
 80014d6:	011b      	lsls	r3, r3, #4
 80014d8:	1a9b      	subs	r3, r3, r2
 80014da:	009b      	lsls	r3, r3, #2
 80014dc:	440b      	add	r3, r1
 80014de:	334d      	adds	r3, #77	@ 0x4d
 80014e0:	2204      	movs	r2, #4
 80014e2:	701a      	strb	r2, [r3, #0]
      (void)USB_HC_Halt(hhcd->Instance, chnum);
 80014e4:	687b      	ldr	r3, [r7, #4]
 80014e6:	681b      	ldr	r3, [r3, #0]
 80014e8:	78fa      	ldrb	r2, [r7, #3]
 80014ea:	4611      	mov	r1, r2
 80014ec:	4618      	mov	r0, r3
 80014ee:	f000 ffd5 	bl	800249c <USB_HC_Halt>
 80014f2:	e03f      	b.n	8001574 <HCD_HC_IN_IRQHandler+0xc4c>
    }
    else if ((hhcd->hc[chnum].ep_type == EP_TYPE_CTRL) ||
 80014f4:	78fa      	ldrb	r2, [r7, #3]
 80014f6:	6879      	ldr	r1, [r7, #4]
 80014f8:	4613      	mov	r3, r2
 80014fa:	011b      	lsls	r3, r3, #4
 80014fc:	1a9b      	subs	r3, r3, r2
 80014fe:	009b      	lsls	r3, r3, #2
 8001500:	440b      	add	r3, r1
 8001502:	3326      	adds	r3, #38	@ 0x26
 8001504:	781b      	ldrb	r3, [r3, #0]
 8001506:	2b00      	cmp	r3, #0
 8001508:	d00a      	beq.n	8001520 <HCD_HC_IN_IRQHandler+0xbf8>
             (hhcd->hc[chnum].ep_type == EP_TYPE_BULK))
 800150a:	78fa      	ldrb	r2, [r7, #3]
 800150c:	6879      	ldr	r1, [r7, #4]
 800150e:	4613      	mov	r3, r2
 8001510:	011b      	lsls	r3, r3, #4
 8001512:	1a9b      	subs	r3, r3, r2
 8001514:	009b      	lsls	r3, r3, #2
 8001516:	440b      	add	r3, r1
 8001518:	3326      	adds	r3, #38	@ 0x26
 800151a:	781b      	ldrb	r3, [r3, #0]
    else if ((hhcd->hc[chnum].ep_type == EP_TYPE_CTRL) ||
 800151c:	2b02      	cmp	r3, #2
 800151e:	d129      	bne.n	8001574 <HCD_HC_IN_IRQHandler+0xc4c>
    {
      hhcd->hc[chnum].ErrCnt = 0U;
 8001520:	78fa      	ldrb	r2, [r7, #3]
 8001522:	6879      	ldr	r1, [r7, #4]
 8001524:	4613      	mov	r3, r2
 8001526:	011b      	lsls	r3, r3, #4
 8001528:	1a9b      	subs	r3, r3, r2
 800152a:	009b      	lsls	r3, r3, #2
 800152c:	440b      	add	r3, r1
 800152e:	3344      	adds	r3, #68	@ 0x44
 8001530:	2200      	movs	r2, #0
 8001532:	601a      	str	r2, [r3, #0]

      if ((hhcd->Init.dma_enable == 0U) || (hhcd->hc[chnum].do_csplit == 1U))
 8001534:	687b      	ldr	r3, [r7, #4]
 8001536:	799b      	ldrb	r3, [r3, #6]
 8001538:	2b00      	cmp	r3, #0
 800153a:	d00a      	beq.n	8001552 <HCD_HC_IN_IRQHandler+0xc2a>
 800153c:	78fa      	ldrb	r2, [r7, #3]
 800153e:	6879      	ldr	r1, [r7, #4]
 8001540:	4613      	mov	r3, r2
 8001542:	011b      	lsls	r3, r3, #4
 8001544:	1a9b      	subs	r3, r3, r2
 8001546:	009b      	lsls	r3, r3, #2
 8001548:	440b      	add	r3, r1
 800154a:	331b      	adds	r3, #27
 800154c:	781b      	ldrb	r3, [r3, #0]
 800154e:	2b01      	cmp	r3, #1
 8001550:	d110      	bne.n	8001574 <HCD_HC_IN_IRQHandler+0xc4c>
      {
        hhcd->hc[chnum].state = HC_NAK;
 8001552:	78fa      	ldrb	r2, [r7, #3]
 8001554:	6879      	ldr	r1, [r7, #4]
 8001556:	4613      	mov	r3, r2
 8001558:	011b      	lsls	r3, r3, #4
 800155a:	1a9b      	subs	r3, r3, r2
 800155c:	009b      	lsls	r3, r3, #2
 800155e:	440b      	add	r3, r1
 8001560:	334d      	adds	r3, #77	@ 0x4d
 8001562:	2204      	movs	r2, #4
 8001564:	701a      	strb	r2, [r3, #0]
        (void)USB_HC_Halt(hhcd->Instance, chnum);
 8001566:	687b      	ldr	r3, [r7, #4]
 8001568:	681b      	ldr	r3, [r3, #0]
 800156a:	78fa      	ldrb	r2, [r7, #3]
 800156c:	4611      	mov	r1, r2
 800156e:	4618      	mov	r0, r3
 8001570:	f000 ff94 	bl	800249c <USB_HC_Halt>
    else
    {
      /* ... */
    }

    if (hhcd->hc[chnum].do_csplit == 1U)
 8001574:	78fa      	ldrb	r2, [r7, #3]
 8001576:	6879      	ldr	r1, [r7, #4]
 8001578:	4613      	mov	r3, r2
 800157a:	011b      	lsls	r3, r3, #4
 800157c:	1a9b      	subs	r3, r3, r2
 800157e:	009b      	lsls	r3, r3, #2
 8001580:	440b      	add	r3, r1
 8001582:	331b      	adds	r3, #27
 8001584:	781b      	ldrb	r3, [r3, #0]
 8001586:	2b01      	cmp	r3, #1
 8001588:	d129      	bne.n	80015de <HCD_HC_IN_IRQHandler+0xcb6>
    {
      hhcd->hc[chnum].do_csplit = 0U;
 800158a:	78fa      	ldrb	r2, [r7, #3]
 800158c:	6879      	ldr	r1, [r7, #4]
 800158e:	4613      	mov	r3, r2
 8001590:	011b      	lsls	r3, r3, #4
 8001592:	1a9b      	subs	r3, r3, r2
 8001594:	009b      	lsls	r3, r3, #2
 8001596:	440b      	add	r3, r1
 8001598:	331b      	adds	r3, #27
 800159a:	2200      	movs	r2, #0
 800159c:	701a      	strb	r2, [r3, #0]
      __HAL_HCD_CLEAR_HC_CSPLT(chnum);
 800159e:	78fb      	ldrb	r3, [r7, #3]
 80015a0:	015a      	lsls	r2, r3, #5
 80015a2:	693b      	ldr	r3, [r7, #16]
 80015a4:	4413      	add	r3, r2
 80015a6:	f503 63a0 	add.w	r3, r3, #1280	@ 0x500
 80015aa:	685b      	ldr	r3, [r3, #4]
 80015ac:	78fa      	ldrb	r2, [r7, #3]
 80015ae:	0151      	lsls	r1, r2, #5
 80015b0:	693a      	ldr	r2, [r7, #16]
 80015b2:	440a      	add	r2, r1
 80015b4:	f502 62a0 	add.w	r2, r2, #1280	@ 0x500
 80015b8:	f423 3380 	bic.w	r3, r3, #65536	@ 0x10000
 80015bc:	6053      	str	r3, [r2, #4]
      __HAL_HCD_UNMASK_ACK_HC_INT(chnum);
 80015be:	78fb      	ldrb	r3, [r7, #3]
 80015c0:	015a      	lsls	r2, r3, #5
 80015c2:	693b      	ldr	r3, [r7, #16]
 80015c4:	4413      	add	r3, r2
 80015c6:	f503 63a0 	add.w	r3, r3, #1280	@ 0x500
 80015ca:	68db      	ldr	r3, [r3, #12]
 80015cc:	78fa      	ldrb	r2, [r7, #3]
 80015ce:	0151      	lsls	r1, r2, #5
 80015d0:	693a      	ldr	r2, [r7, #16]
 80015d2:	440a      	add	r2, r1
 80015d4:	f502 62a0 	add.w	r2, r2, #1280	@ 0x500
 80015d8:	f043 0320 	orr.w	r3, r3, #32
 80015dc:	60d3      	str	r3, [r2, #12]
    }

    __HAL_HCD_CLEAR_HC_INT(chnum, USB_OTG_HCINT_NAK);
 80015de:	78fb      	ldrb	r3, [r7, #3]
 80015e0:	015a      	lsls	r2, r3, #5
 80015e2:	693b      	ldr	r3, [r7, #16]
 80015e4:	4413      	add	r3, r2
 80015e6:	f503 63a0 	add.w	r3, r3, #1280	@ 0x500
 80015ea:	461a      	mov	r2, r3
 80015ec:	2310      	movs	r3, #16
 80015ee:	6093      	str	r3, [r2, #8]
 80015f0:	e000      	b.n	80015f4 <HCD_HC_IN_IRQHandler+0xccc>
        return;
 80015f2:	bf00      	nop
  }
  else
  {
    /* ... */
  }
}
 80015f4:	3718      	adds	r7, #24
 80015f6:	46bd      	mov	sp, r7
 80015f8:	bd80      	pop	{r7, pc}

080015fa <HCD_HC_OUT_IRQHandler>:
  * @param  chnum Channel number.
  *         This parameter can be a value from 1 to 15
  * @retval none
  */
static void HCD_HC_OUT_IRQHandler(HCD_HandleTypeDef *hhcd, uint8_t chnum)
{
 80015fa:	b580      	push	{r7, lr}
 80015fc:	b086      	sub	sp, #24
 80015fe:	af00      	add	r7, sp, #0
 8001600:	6078      	str	r0, [r7, #4]
 8001602:	460b      	mov	r3, r1
 8001604:	70fb      	strb	r3, [r7, #3]
  const USB_OTG_GlobalTypeDef *USBx = hhcd->Instance;
 8001606:	687b      	ldr	r3, [r7, #4]
 8001608:	681b      	ldr	r3, [r3, #0]
 800160a:	617b      	str	r3, [r7, #20]
  uint32_t USBx_BASE = (uint32_t)USBx;
 800160c:	697b      	ldr	r3, [r7, #20]
 800160e:	613b      	str	r3, [r7, #16]
  uint32_t tmpreg;
  uint32_t num_packets;

  if (__HAL_HCD_GET_CH_FLAG(hhcd, chnum, USB_OTG_HCINT_AHBERR))
 8001610:	687b      	ldr	r3, [r7, #4]
 8001612:	681b      	ldr	r3, [r3, #0]
 8001614:	78fa      	ldrb	r2, [r7, #3]
 8001616:	4611      	mov	r1, r2
 8001618:	4618      	mov	r0, r3
 800161a:	f000 fec6 	bl	80023aa <USB_ReadChInterrupts>
 800161e:	4603      	mov	r3, r0
 8001620:	f003 0304 	and.w	r3, r3, #4
 8001624:	2b04      	cmp	r3, #4
 8001626:	d11b      	bne.n	8001660 <HCD_HC_OUT_IRQHandler+0x66>
  {
    __HAL_HCD_CLEAR_HC_INT(chnum, USB_OTG_HCINT_AHBERR);
 8001628:	78fb      	ldrb	r3, [r7, #3]
 800162a:	015a      	lsls	r2, r3, #5
 800162c:	693b      	ldr	r3, [r7, #16]
 800162e:	4413      	add	r3, r2
 8001630:	f503 63a0 	add.w	r3, r3, #1280	@ 0x500
 8001634:	461a      	mov	r2, r3
 8001636:	2304      	movs	r3, #4
 8001638:	6093      	str	r3, [r2, #8]
    hhcd->hc[chnum].state = HC_XACTERR;
 800163a:	78fa      	ldrb	r2, [r7, #3]
 800163c:	6879      	ldr	r1, [r7, #4]
 800163e:	4613      	mov	r3, r2
 8001640:	011b      	lsls	r3, r3, #4
 8001642:	1a9b      	subs	r3, r3, r2
 8001644:	009b      	lsls	r3, r3, #2
 8001646:	440b      	add	r3, r1
 8001648:	334d      	adds	r3, #77	@ 0x4d
 800164a:	2207      	movs	r2, #7
 800164c:	701a      	strb	r2, [r3, #0]
    (void)USB_HC_Halt(hhcd->Instance, chnum);
 800164e:	687b      	ldr	r3, [r7, #4]
 8001650:	681b      	ldr	r3, [r3, #0]
 8001652:	78fa      	ldrb	r2, [r7, #3]
 8001654:	4611      	mov	r1, r2
 8001656:	4618      	mov	r0, r3
 8001658:	f000 ff20 	bl	800249c <USB_HC_Halt>
 800165c:	f000 bc89 	b.w	8001f72 <HCD_HC_OUT_IRQHandler+0x978>
  }
  else if (__HAL_HCD_GET_CH_FLAG(hhcd, chnum, USB_OTG_HCINT_ACK))
 8001660:	687b      	ldr	r3, [r7, #4]
 8001662:	681b      	ldr	r3, [r3, #0]
 8001664:	78fa      	ldrb	r2, [r7, #3]
 8001666:	4611      	mov	r1, r2
 8001668:	4618      	mov	r0, r3
 800166a:	f000 fe9e 	bl	80023aa <USB_ReadChInterrupts>
 800166e:	4603      	mov	r3, r0
 8001670:	f003 0320 	and.w	r3, r3, #32
 8001674:	2b20      	cmp	r3, #32
 8001676:	f040 8082 	bne.w	800177e <HCD_HC_OUT_IRQHandler+0x184>
  {
    __HAL_HCD_CLEAR_HC_INT(chnum, USB_OTG_HCINT_ACK);
 800167a:	78fb      	ldrb	r3, [r7, #3]
 800167c:	015a      	lsls	r2, r3, #5
 800167e:	693b      	ldr	r3, [r7, #16]
 8001680:	4413      	add	r3, r2
 8001682:	f503 63a0 	add.w	r3, r3, #1280	@ 0x500
 8001686:	461a      	mov	r2, r3
 8001688:	2320      	movs	r3, #32
 800168a:	6093      	str	r3, [r2, #8]

    if (hhcd->hc[chnum].do_ping == 1U)
 800168c:	78fa      	ldrb	r2, [r7, #3]
 800168e:	6879      	ldr	r1, [r7, #4]
 8001690:	4613      	mov	r3, r2
 8001692:	011b      	lsls	r3, r3, #4
 8001694:	1a9b      	subs	r3, r3, r2
 8001696:	009b      	lsls	r3, r3, #2
 8001698:	440b      	add	r3, r1
 800169a:	3319      	adds	r3, #25
 800169c:	781b      	ldrb	r3, [r3, #0]
 800169e:	2b01      	cmp	r3, #1
 80016a0:	d124      	bne.n	80016ec <HCD_HC_OUT_IRQHandler+0xf2>
    {
      hhcd->hc[chnum].do_ping = 0U;
 80016a2:	78fa      	ldrb	r2, [r7, #3]
 80016a4:	6879      	ldr	r1, [r7, #4]
 80016a6:	4613      	mov	r3, r2
 80016a8:	011b      	lsls	r3, r3, #4
 80016aa:	1a9b      	subs	r3, r3, r2
 80016ac:	009b      	lsls	r3, r3, #2
 80016ae:	440b      	add	r3, r1
 80016b0:	3319      	adds	r3, #25
 80016b2:	2200      	movs	r2, #0
 80016b4:	701a      	strb	r2, [r3, #0]
      hhcd->hc[chnum].urb_state = URB_NOTREADY;
 80016b6:	78fa      	ldrb	r2, [r7, #3]
 80016b8:	6879      	ldr	r1, [r7, #4]
 80016ba:	4613      	mov	r3, r2
 80016bc:	011b      	lsls	r3, r3, #4
 80016be:	1a9b      	subs	r3, r3, r2
 80016c0:	009b      	lsls	r3, r3, #2
 80016c2:	440b      	add	r3, r1
 80016c4:	334c      	adds	r3, #76	@ 0x4c
 80016c6:	2202      	movs	r2, #2
 80016c8:	701a      	strb	r2, [r3, #0]
      hhcd->hc[chnum].state = HC_ACK;
 80016ca:	78fa      	ldrb	r2, [r7, #3]
 80016cc:	6879      	ldr	r1, [r7, #4]
 80016ce:	4613      	mov	r3, r2
 80016d0:	011b      	lsls	r3, r3, #4
 80016d2:	1a9b      	subs	r3, r3, r2
 80016d4:	009b      	lsls	r3, r3, #2
 80016d6:	440b      	add	r3, r1
 80016d8:	334d      	adds	r3, #77	@ 0x4d
 80016da:	2203      	movs	r2, #3
 80016dc:	701a      	strb	r2, [r3, #0]
      (void)USB_HC_Halt(hhcd->Instance, chnum);
 80016de:	687b      	ldr	r3, [r7, #4]
 80016e0:	681b      	ldr	r3, [r3, #0]
 80016e2:	78fa      	ldrb	r2, [r7, #3]
 80016e4:	4611      	mov	r1, r2
 80016e6:	4618      	mov	r0, r3
 80016e8:	f000 fed8 	bl	800249c <USB_HC_Halt>
    }

    if ((hhcd->hc[chnum].do_ssplit == 1U) && (hhcd->hc[chnum].do_csplit == 0U))
 80016ec:	78fa      	ldrb	r2, [r7, #3]
 80016ee:	6879      	ldr	r1, [r7, #4]
 80016f0:	4613      	mov	r3, r2
 80016f2:	011b      	lsls	r3, r3, #4
 80016f4:	1a9b      	subs	r3, r3, r2
 80016f6:	009b      	lsls	r3, r3, #2
 80016f8:	440b      	add	r3, r1
 80016fa:	331a      	adds	r3, #26
 80016fc:	781b      	ldrb	r3, [r3, #0]
 80016fe:	2b01      	cmp	r3, #1
 8001700:	f040 8437 	bne.w	8001f72 <HCD_HC_OUT_IRQHandler+0x978>
 8001704:	78fa      	ldrb	r2, [r7, #3]
 8001706:	6879      	ldr	r1, [r7, #4]
 8001708:	4613      	mov	r3, r2
 800170a:	011b      	lsls	r3, r3, #4
 800170c:	1a9b      	subs	r3, r3, r2
 800170e:	009b      	lsls	r3, r3, #2
 8001710:	440b      	add	r3, r1
 8001712:	331b      	adds	r3, #27
 8001714:	781b      	ldrb	r3, [r3, #0]
 8001716:	2b00      	cmp	r3, #0
 8001718:	f040 842b 	bne.w	8001f72 <HCD_HC_OUT_IRQHandler+0x978>
    {
      if (hhcd->hc[chnum].ep_type != EP_TYPE_ISOC)
 800171c:	78fa      	ldrb	r2, [r7, #3]
 800171e:	6879      	ldr	r1, [r7, #4]
 8001720:	4613      	mov	r3, r2
 8001722:	011b      	lsls	r3, r3, #4
 8001724:	1a9b      	subs	r3, r3, r2
 8001726:	009b      	lsls	r3, r3, #2
 8001728:	440b      	add	r3, r1
 800172a:	3326      	adds	r3, #38	@ 0x26
 800172c:	781b      	ldrb	r3, [r3, #0]
 800172e:	2b01      	cmp	r3, #1
 8001730:	d009      	beq.n	8001746 <HCD_HC_OUT_IRQHandler+0x14c>
      {
        hhcd->hc[chnum].do_csplit = 1U;
 8001732:	78fa      	ldrb	r2, [r7, #3]
 8001734:	6879      	ldr	r1, [r7, #4]
 8001736:	4613      	mov	r3, r2
 8001738:	011b      	lsls	r3, r3, #4
 800173a:	1a9b      	subs	r3, r3, r2
 800173c:	009b      	lsls	r3, r3, #2
 800173e:	440b      	add	r3, r1
 8001740:	331b      	adds	r3, #27
 8001742:	2201      	movs	r2, #1
 8001744:	701a      	strb	r2, [r3, #0]
      }

      hhcd->hc[chnum].state = HC_ACK;
 8001746:	78fa      	ldrb	r2, [r7, #3]
 8001748:	6879      	ldr	r1, [r7, #4]
 800174a:	4613      	mov	r3, r2
 800174c:	011b      	lsls	r3, r3, #4
 800174e:	1a9b      	subs	r3, r3, r2
 8001750:	009b      	lsls	r3, r3, #2
 8001752:	440b      	add	r3, r1
 8001754:	334d      	adds	r3, #77	@ 0x4d
 8001756:	2203      	movs	r2, #3
 8001758:	701a      	strb	r2, [r3, #0]
      (void)USB_HC_Halt(hhcd->Instance, chnum);
 800175a:	687b      	ldr	r3, [r7, #4]
 800175c:	681b      	ldr	r3, [r3, #0]
 800175e:	78fa      	ldrb	r2, [r7, #3]
 8001760:	4611      	mov	r1, r2
 8001762:	4618      	mov	r0, r3
 8001764:	f000 fe9a 	bl	800249c <USB_HC_Halt>

      /* reset error_count */
      hhcd->hc[chnum].ErrCnt = 0U;
 8001768:	78fa      	ldrb	r2, [r7, #3]
 800176a:	6879      	ldr	r1, [r7, #4]
 800176c:	4613      	mov	r3, r2
 800176e:	011b      	lsls	r3, r3, #4
 8001770:	1a9b      	subs	r3, r3, r2
 8001772:	009b      	lsls	r3, r3, #2
 8001774:	440b      	add	r3, r1
 8001776:	3344      	adds	r3, #68	@ 0x44
 8001778:	2200      	movs	r2, #0
 800177a:	601a      	str	r2, [r3, #0]
 800177c:	e3f9      	b.n	8001f72 <HCD_HC_OUT_IRQHandler+0x978>
    }
  }
  else if (__HAL_HCD_GET_CH_FLAG(hhcd, chnum, USB_OTG_HCINT_FRMOR))
 800177e:	687b      	ldr	r3, [r7, #4]
 8001780:	681b      	ldr	r3, [r3, #0]
 8001782:	78fa      	ldrb	r2, [r7, #3]
 8001784:	4611      	mov	r1, r2
 8001786:	4618      	mov	r0, r3
 8001788:	f000 fe0f 	bl	80023aa <USB_ReadChInterrupts>
 800178c:	4603      	mov	r3, r0
 800178e:	f403 7300 	and.w	r3, r3, #512	@ 0x200
 8001792:	f5b3 7f00 	cmp.w	r3, #512	@ 0x200
 8001796:	d111      	bne.n	80017bc <HCD_HC_OUT_IRQHandler+0x1c2>
  {
    __HAL_HCD_CLEAR_HC_INT(chnum, USB_OTG_HCINT_FRMOR);
 8001798:	78fb      	ldrb	r3, [r7, #3]
 800179a:	015a      	lsls	r2, r3, #5
 800179c:	693b      	ldr	r3, [r7, #16]
 800179e:	4413      	add	r3, r2
 80017a0:	f503 63a0 	add.w	r3, r3, #1280	@ 0x500
 80017a4:	461a      	mov	r2, r3
 80017a6:	f44f 7300 	mov.w	r3, #512	@ 0x200
 80017aa:	6093      	str	r3, [r2, #8]
    (void)USB_HC_Halt(hhcd->Instance, chnum);
 80017ac:	687b      	ldr	r3, [r7, #4]
 80017ae:	681b      	ldr	r3, [r3, #0]
 80017b0:	78fa      	ldrb	r2, [r7, #3]
 80017b2:	4611      	mov	r1, r2
 80017b4:	4618      	mov	r0, r3
 80017b6:	f000 fe71 	bl	800249c <USB_HC_Halt>
 80017ba:	e3da      	b.n	8001f72 <HCD_HC_OUT_IRQHandler+0x978>
  }
  else if (__HAL_HCD_GET_CH_FLAG(hhcd, chnum, USB_OTG_HCINT_XFRC))
 80017bc:	687b      	ldr	r3, [r7, #4]
 80017be:	681b      	ldr	r3, [r3, #0]
 80017c0:	78fa      	ldrb	r2, [r7, #3]
 80017c2:	4611      	mov	r1, r2
 80017c4:	4618      	mov	r0, r3
 80017c6:	f000 fdf0 	bl	80023aa <USB_ReadChInterrupts>
 80017ca:	4603      	mov	r3, r0
 80017cc:	f003 0301 	and.w	r3, r3, #1
 80017d0:	2b01      	cmp	r3, #1
 80017d2:	d168      	bne.n	80018a6 <HCD_HC_OUT_IRQHandler+0x2ac>
  {
    hhcd->hc[chnum].ErrCnt = 0U;
 80017d4:	78fa      	ldrb	r2, [r7, #3]
 80017d6:	6879      	ldr	r1, [r7, #4]
 80017d8:	4613      	mov	r3, r2
 80017da:	011b      	lsls	r3, r3, #4
 80017dc:	1a9b      	subs	r3, r3, r2
 80017de:	009b      	lsls	r3, r3, #2
 80017e0:	440b      	add	r3, r1
 80017e2:	3344      	adds	r3, #68	@ 0x44
 80017e4:	2200      	movs	r2, #0
 80017e6:	601a      	str	r2, [r3, #0]

    /* transaction completed with NYET state, update do ping state */
    if (__HAL_HCD_GET_CH_FLAG(hhcd, chnum, USB_OTG_HCINT_NYET))
 80017e8:	687b      	ldr	r3, [r7, #4]
 80017ea:	681b      	ldr	r3, [r3, #0]
 80017ec:	78fa      	ldrb	r2, [r7, #3]
 80017ee:	4611      	mov	r1, r2
 80017f0:	4618      	mov	r0, r3
 80017f2:	f000 fdda 	bl	80023aa <USB_ReadChInterrupts>
 80017f6:	4603      	mov	r3, r0
 80017f8:	f003 0340 	and.w	r3, r3, #64	@ 0x40
 80017fc:	2b40      	cmp	r3, #64	@ 0x40
 80017fe:	d112      	bne.n	8001826 <HCD_HC_OUT_IRQHandler+0x22c>
    {
      hhcd->hc[chnum].do_ping = 1U;
 8001800:	78fa      	ldrb	r2, [r7, #3]
 8001802:	6879      	ldr	r1, [r7, #4]
 8001804:	4613      	mov	r3, r2
 8001806:	011b      	lsls	r3, r3, #4
 8001808:	1a9b      	subs	r3, r3, r2
 800180a:	009b      	lsls	r3, r3, #2
 800180c:	440b      	add	r3, r1
 800180e:	3319      	adds	r3, #25
 8001810:	2201      	movs	r2, #1
 8001812:	701a      	strb	r2, [r3, #0]
      __HAL_HCD_CLEAR_HC_INT(chnum, USB_OTG_HCINT_NYET);
 8001814:	78fb      	ldrb	r3, [r7, #3]
 8001816:	015a      	lsls	r2, r3, #5
 8001818:	693b      	ldr	r3, [r7, #16]
 800181a:	4413      	add	r3, r2
 800181c:	f503 63a0 	add.w	r3, r3, #1280	@ 0x500
 8001820:	461a      	mov	r2, r3
 8001822:	2340      	movs	r3, #64	@ 0x40
 8001824:	6093      	str	r3, [r2, #8]
    }

    if (hhcd->hc[chnum].do_csplit != 0U)
 8001826:	78fa      	ldrb	r2, [r7, #3]
 8001828:	6879      	ldr	r1, [r7, #4]
 800182a:	4613      	mov	r3, r2
 800182c:	011b      	lsls	r3, r3, #4
 800182e:	1a9b      	subs	r3, r3, r2
 8001830:	009b      	lsls	r3, r3, #2
 8001832:	440b      	add	r3, r1
 8001834:	331b      	adds	r3, #27
 8001836:	781b      	ldrb	r3, [r3, #0]
 8001838:	2b00      	cmp	r3, #0
 800183a:	d019      	beq.n	8001870 <HCD_HC_OUT_IRQHandler+0x276>
    {
      hhcd->hc[chnum].do_csplit = 0U;
 800183c:	78fa      	ldrb	r2, [r7, #3]
 800183e:	6879      	ldr	r1, [r7, #4]
 8001840:	4613      	mov	r3, r2
 8001842:	011b      	lsls	r3, r3, #4
 8001844:	1a9b      	subs	r3, r3, r2
 8001846:	009b      	lsls	r3, r3, #2
 8001848:	440b      	add	r3, r1
 800184a:	331b      	adds	r3, #27
 800184c:	2200      	movs	r2, #0
 800184e:	701a      	strb	r2, [r3, #0]
      __HAL_HCD_CLEAR_HC_CSPLT(chnum);
 8001850:	78fb      	ldrb	r3, [r7, #3]
 8001852:	015a      	lsls	r2, r3, #5
 8001854:	693b      	ldr	r3, [r7, #16]
 8001856:	4413      	add	r3, r2
 8001858:	f503 63a0 	add.w	r3, r3, #1280	@ 0x500
 800185c:	685b      	ldr	r3, [r3, #4]
 800185e:	78fa      	ldrb	r2, [r7, #3]
 8001860:	0151      	lsls	r1, r2, #5
 8001862:	693a      	ldr	r2, [r7, #16]
 8001864:	440a      	add	r2, r1
 8001866:	f502 62a0 	add.w	r2, r2, #1280	@ 0x500
 800186a:	f423 3380 	bic.w	r3, r3, #65536	@ 0x10000
 800186e:	6053      	str	r3, [r2, #4]
    }

    __HAL_HCD_CLEAR_HC_INT(chnum, USB_OTG_HCINT_XFRC);
 8001870:	78fb      	ldrb	r3, [r7, #3]
 8001872:	015a      	lsls	r2, r3, #5
 8001874:	693b      	ldr	r3, [r7, #16]
 8001876:	4413      	add	r3, r2
 8001878:	f503 63a0 	add.w	r3, r3, #1280	@ 0x500
 800187c:	461a      	mov	r2, r3
 800187e:	2301      	movs	r3, #1
 8001880:	6093      	str	r3, [r2, #8]
    hhcd->hc[chnum].state = HC_XFRC;
 8001882:	78fa      	ldrb	r2, [r7, #3]
 8001884:	6879      	ldr	r1, [r7, #4]
 8001886:	4613      	mov	r3, r2
 8001888:	011b      	lsls	r3, r3, #4
 800188a:	1a9b      	subs	r3, r3, r2
 800188c:	009b      	lsls	r3, r3, #2
 800188e:	440b      	add	r3, r1
 8001890:	334d      	adds	r3, #77	@ 0x4d
 8001892:	2201      	movs	r2, #1
 8001894:	701a      	strb	r2, [r3, #0]
    (void)USB_HC_Halt(hhcd->Instance, chnum);
 8001896:	687b      	ldr	r3, [r7, #4]
 8001898:	681b      	ldr	r3, [r3, #0]
 800189a:	78fa      	ldrb	r2, [r7, #3]
 800189c:	4611      	mov	r1, r2
 800189e:	4618      	mov	r0, r3
 80018a0:	f000 fdfc 	bl	800249c <USB_HC_Halt>
 80018a4:	e365      	b.n	8001f72 <HCD_HC_OUT_IRQHandler+0x978>
  }
  else if (__HAL_HCD_GET_CH_FLAG(hhcd, chnum, USB_OTG_HCINT_NYET))
 80018a6:	687b      	ldr	r3, [r7, #4]
 80018a8:	681b      	ldr	r3, [r3, #0]
 80018aa:	78fa      	ldrb	r2, [r7, #3]
 80018ac:	4611      	mov	r1, r2
 80018ae:	4618      	mov	r0, r3
 80018b0:	f000 fd7b 	bl	80023aa <USB_ReadChInterrupts>
 80018b4:	4603      	mov	r3, r0
 80018b6:	f003 0340 	and.w	r3, r3, #64	@ 0x40
 80018ba:	2b40      	cmp	r3, #64	@ 0x40
 80018bc:	d139      	bne.n	8001932 <HCD_HC_OUT_IRQHandler+0x338>
  {
    hhcd->hc[chnum].state = HC_NYET;
 80018be:	78fa      	ldrb	r2, [r7, #3]
 80018c0:	6879      	ldr	r1, [r7, #4]
 80018c2:	4613      	mov	r3, r2
 80018c4:	011b      	lsls	r3, r3, #4
 80018c6:	1a9b      	subs	r3, r3, r2
 80018c8:	009b      	lsls	r3, r3, #2
 80018ca:	440b      	add	r3, r1
 80018cc:	334d      	adds	r3, #77	@ 0x4d
 80018ce:	2205      	movs	r2, #5
 80018d0:	701a      	strb	r2, [r3, #0]

    if (hhcd->hc[chnum].do_ssplit == 0U)
 80018d2:	78fa      	ldrb	r2, [r7, #3]
 80018d4:	6879      	ldr	r1, [r7, #4]
 80018d6:	4613      	mov	r3, r2
 80018d8:	011b      	lsls	r3, r3, #4
 80018da:	1a9b      	subs	r3, r3, r2
 80018dc:	009b      	lsls	r3, r3, #2
 80018de:	440b      	add	r3, r1
 80018e0:	331a      	adds	r3, #26
 80018e2:	781b      	ldrb	r3, [r3, #0]
 80018e4:	2b00      	cmp	r3, #0
 80018e6:	d109      	bne.n	80018fc <HCD_HC_OUT_IRQHandler+0x302>
    {
      hhcd->hc[chnum].do_ping = 1U;
 80018e8:	78fa      	ldrb	r2, [r7, #3]
 80018ea:	6879      	ldr	r1, [r7, #4]
 80018ec:	4613      	mov	r3, r2
 80018ee:	011b      	lsls	r3, r3, #4
 80018f0:	1a9b      	subs	r3, r3, r2
 80018f2:	009b      	lsls	r3, r3, #2
 80018f4:	440b      	add	r3, r1
 80018f6:	3319      	adds	r3, #25
 80018f8:	2201      	movs	r2, #1
 80018fa:	701a      	strb	r2, [r3, #0]
    }

    hhcd->hc[chnum].ErrCnt = 0U;
 80018fc:	78fa      	ldrb	r2, [r7, #3]
 80018fe:	6879      	ldr	r1, [r7, #4]
 8001900:	4613      	mov	r3, r2
 8001902:	011b      	lsls	r3, r3, #4
 8001904:	1a9b      	subs	r3, r3, r2
 8001906:	009b      	lsls	r3, r3, #2
 8001908:	440b      	add	r3, r1
 800190a:	3344      	adds	r3, #68	@ 0x44
 800190c:	2200      	movs	r2, #0
 800190e:	601a      	str	r2, [r3, #0]
    (void)USB_HC_Halt(hhcd->Instance, chnum);
 8001910:	687b      	ldr	r3, [r7, #4]
 8001912:	681b      	ldr	r3, [r3, #0]
 8001914:	78fa      	ldrb	r2, [r7, #3]
 8001916:	4611      	mov	r1, r2
 8001918:	4618      	mov	r0, r3
 800191a:	f000 fdbf 	bl	800249c <USB_HC_Halt>
    __HAL_HCD_CLEAR_HC_INT(chnum, USB_OTG_HCINT_NYET);
 800191e:	78fb      	ldrb	r3, [r7, #3]
 8001920:	015a      	lsls	r2, r3, #5
 8001922:	693b      	ldr	r3, [r7, #16]
 8001924:	4413      	add	r3, r2
 8001926:	f503 63a0 	add.w	r3, r3, #1280	@ 0x500
 800192a:	461a      	mov	r2, r3
 800192c:	2340      	movs	r3, #64	@ 0x40
 800192e:	6093      	str	r3, [r2, #8]
 8001930:	e31f      	b.n	8001f72 <HCD_HC_OUT_IRQHandler+0x978>
  }
  else if (__HAL_HCD_GET_CH_FLAG(hhcd, chnum, USB_OTG_HCINT_STALL))
 8001932:	687b      	ldr	r3, [r7, #4]
 8001934:	681b      	ldr	r3, [r3, #0]
 8001936:	78fa      	ldrb	r2, [r7, #3]
 8001938:	4611      	mov	r1, r2
 800193a:	4618      	mov	r0, r3
 800193c:	f000 fd35 	bl	80023aa <USB_ReadChInterrupts>
 8001940:	4603      	mov	r3, r0
 8001942:	f003 0308 	and.w	r3, r3, #8
 8001946:	2b08      	cmp	r3, #8
 8001948:	d11a      	bne.n	8001980 <HCD_HC_OUT_IRQHandler+0x386>
  {
    __HAL_HCD_CLEAR_HC_INT(chnum, USB_OTG_HCINT_STALL);
 800194a:	78fb      	ldrb	r3, [r7, #3]
 800194c:	015a      	lsls	r2, r3, #5
 800194e:	693b      	ldr	r3, [r7, #16]
 8001950:	4413      	add	r3, r2
 8001952:	f503 63a0 	add.w	r3, r3, #1280	@ 0x500
 8001956:	461a      	mov	r2, r3
 8001958:	2308      	movs	r3, #8
 800195a:	6093      	str	r3, [r2, #8]
    hhcd->hc[chnum].state = HC_STALL;
 800195c:	78fa      	ldrb	r2, [r7, #3]
 800195e:	6879      	ldr	r1, [r7, #4]
 8001960:	4613      	mov	r3, r2
 8001962:	011b      	lsls	r3, r3, #4
 8001964:	1a9b      	subs	r3, r3, r2
 8001966:	009b      	lsls	r3, r3, #2
 8001968:	440b      	add	r3, r1
 800196a:	334d      	adds	r3, #77	@ 0x4d
 800196c:	2206      	movs	r2, #6
 800196e:	701a      	strb	r2, [r3, #0]
    (void)USB_HC_Halt(hhcd->Instance, chnum);
 8001970:	687b      	ldr	r3, [r7, #4]
 8001972:	681b      	ldr	r3, [r3, #0]
 8001974:	78fa      	ldrb	r2, [r7, #3]
 8001976:	4611      	mov	r1, r2
 8001978:	4618      	mov	r0, r3
 800197a:	f000 fd8f 	bl	800249c <USB_HC_Halt>
 800197e:	e2f8      	b.n	8001f72 <HCD_HC_OUT_IRQHandler+0x978>
  }
  else if (__HAL_HCD_GET_CH_FLAG(hhcd, chnum, USB_OTG_HCINT_NAK))
 8001980:	687b      	ldr	r3, [r7, #4]
 8001982:	681b      	ldr	r3, [r3, #0]
 8001984:	78fa      	ldrb	r2, [r7, #3]
 8001986:	4611      	mov	r1, r2
 8001988:	4618      	mov	r0, r3
 800198a:	f000 fd0e 	bl	80023aa <USB_ReadChInterrupts>
 800198e:	4603      	mov	r3, r0
 8001990:	f003 0310 	and.w	r3, r3, #16
 8001994:	2b10      	cmp	r3, #16
 8001996:	d144      	bne.n	8001a22 <HCD_HC_OUT_IRQHandler+0x428>
  {
    hhcd->hc[chnum].ErrCnt = 0U;
 8001998:	78fa      	ldrb	r2, [r7, #3]
 800199a:	6879      	ldr	r1, [r7, #4]
 800199c:	4613      	mov	r3, r2
 800199e:	011b      	lsls	r3, r3, #4
 80019a0:	1a9b      	subs	r3, r3, r2
 80019a2:	009b      	lsls	r3, r3, #2
 80019a4:	440b      	add	r3, r1
 80019a6:	3344      	adds	r3, #68	@ 0x44
 80019a8:	2200      	movs	r2, #0
 80019aa:	601a      	str	r2, [r3, #0]
    hhcd->hc[chnum].state = HC_NAK;
 80019ac:	78fa      	ldrb	r2, [r7, #3]
 80019ae:	6879      	ldr	r1, [r7, #4]
 80019b0:	4613      	mov	r3, r2
 80019b2:	011b      	lsls	r3, r3, #4
 80019b4:	1a9b      	subs	r3, r3, r2
 80019b6:	009b      	lsls	r3, r3, #2
 80019b8:	440b      	add	r3, r1
 80019ba:	334d      	adds	r3, #77	@ 0x4d
 80019bc:	2204      	movs	r2, #4
 80019be:	701a      	strb	r2, [r3, #0]

    if (hhcd->hc[chnum].do_ping == 0U)
 80019c0:	78fa      	ldrb	r2, [r7, #3]
 80019c2:	6879      	ldr	r1, [r7, #4]
 80019c4:	4613      	mov	r3, r2
 80019c6:	011b      	lsls	r3, r3, #4
 80019c8:	1a9b      	subs	r3, r3, r2
 80019ca:	009b      	lsls	r3, r3, #2
 80019cc:	440b      	add	r3, r1
 80019ce:	3319      	adds	r3, #25
 80019d0:	781b      	ldrb	r3, [r3, #0]
 80019d2:	2b00      	cmp	r3, #0
 80019d4:	d114      	bne.n	8001a00 <HCD_HC_OUT_IRQHandler+0x406>
    {
      if (hhcd->hc[chnum].speed == HCD_DEVICE_SPEED_HIGH)
 80019d6:	78fa      	ldrb	r2, [r7, #3]
 80019d8:	6879      	ldr	r1, [r7, #4]
 80019da:	4613      	mov	r3, r2
 80019dc:	011b      	lsls	r3, r3, #4
 80019de:	1a9b      	subs	r3, r3, r2
 80019e0:	009b      	lsls	r3, r3, #2
 80019e2:	440b      	add	r3, r1
 80019e4:	3318      	adds	r3, #24
 80019e6:	781b      	ldrb	r3, [r3, #0]
 80019e8:	2b00      	cmp	r3, #0
 80019ea:	d109      	bne.n	8001a00 <HCD_HC_OUT_IRQHandler+0x406>
      {
        hhcd->hc[chnum].do_ping = 1U;
 80019ec:	78fa      	ldrb	r2, [r7, #3]
 80019ee:	6879      	ldr	r1, [r7, #4]
 80019f0:	4613      	mov	r3, r2
 80019f2:	011b      	lsls	r3, r3, #4
 80019f4:	1a9b      	subs	r3, r3, r2
 80019f6:	009b      	lsls	r3, r3, #2
 80019f8:	440b      	add	r3, r1
 80019fa:	3319      	adds	r3, #25
 80019fc:	2201      	movs	r2, #1
 80019fe:	701a      	strb	r2, [r3, #0]
      }
    }

    (void)USB_HC_Halt(hhcd->Instance, chnum);
 8001a00:	687b      	ldr	r3, [r7, #4]
 8001a02:	681b      	ldr	r3, [r3, #0]
 8001a04:	78fa      	ldrb	r2, [r7, #3]
 8001a06:	4611      	mov	r1, r2
 8001a08:	4618      	mov	r0, r3
 8001a0a:	f000 fd47 	bl	800249c <USB_HC_Halt>
    __HAL_HCD_CLEAR_HC_INT(chnum, USB_OTG_HCINT_NAK);
 8001a0e:	78fb      	ldrb	r3, [r7, #3]
 8001a10:	015a      	lsls	r2, r3, #5
 8001a12:	693b      	ldr	r3, [r7, #16]
 8001a14:	4413      	add	r3, r2
 8001a16:	f503 63a0 	add.w	r3, r3, #1280	@ 0x500
 8001a1a:	461a      	mov	r2, r3
 8001a1c:	2310      	movs	r3, #16
 8001a1e:	6093      	str	r3, [r2, #8]
 8001a20:	e2a7      	b.n	8001f72 <HCD_HC_OUT_IRQHandler+0x978>
  }
  else if (__HAL_HCD_GET_CH_FLAG(hhcd, chnum, USB_OTG_HCINT_TXERR))
 8001a22:	687b      	ldr	r3, [r7, #4]
 8001a24:	681b      	ldr	r3, [r3, #0]
 8001a26:	78fa      	ldrb	r2, [r7, #3]
 8001a28:	4611      	mov	r1, r2
 8001a2a:	4618      	mov	r0, r3
 8001a2c:	f000 fcbd 	bl	80023aa <USB_ReadChInterrupts>
 8001a30:	4603      	mov	r3, r0
 8001a32:	f003 0380 	and.w	r3, r3, #128	@ 0x80
 8001a36:	2b80      	cmp	r3, #128	@ 0x80
 8001a38:	f040 8083 	bne.w	8001b42 <HCD_HC_OUT_IRQHandler+0x548>
  {
    if (hhcd->Init.dma_enable == 0U)
 8001a3c:	687b      	ldr	r3, [r7, #4]
 8001a3e:	799b      	ldrb	r3, [r3, #6]
 8001a40:	2b00      	cmp	r3, #0
 8001a42:	d111      	bne.n	8001a68 <HCD_HC_OUT_IRQHandler+0x46e>
    {
      hhcd->hc[chnum].state = HC_XACTERR;
 8001a44:	78fa      	ldrb	r2, [r7, #3]
 8001a46:	6879      	ldr	r1, [r7, #4]
 8001a48:	4613      	mov	r3, r2
 8001a4a:	011b      	lsls	r3, r3, #4
 8001a4c:	1a9b      	subs	r3, r3, r2
 8001a4e:	009b      	lsls	r3, r3, #2
 8001a50:	440b      	add	r3, r1
 8001a52:	334d      	adds	r3, #77	@ 0x4d
 8001a54:	2207      	movs	r2, #7
 8001a56:	701a      	strb	r2, [r3, #0]
      (void)USB_HC_Halt(hhcd->Instance, chnum);
 8001a58:	687b      	ldr	r3, [r7, #4]
 8001a5a:	681b      	ldr	r3, [r3, #0]
 8001a5c:	78fa      	ldrb	r2, [r7, #3]
 8001a5e:	4611      	mov	r1, r2
 8001a60:	4618      	mov	r0, r3
 8001a62:	f000 fd1b 	bl	800249c <USB_HC_Halt>
 8001a66:	e062      	b.n	8001b2e <HCD_HC_OUT_IRQHandler+0x534>
    }
    else
    {
      hhcd->hc[chnum].ErrCnt++;
 8001a68:	78fa      	ldrb	r2, [r7, #3]
 8001a6a:	6879      	ldr	r1, [r7, #4]
 8001a6c:	4613      	mov	r3, r2
 8001a6e:	011b      	lsls	r3, r3, #4
 8001a70:	1a9b      	subs	r3, r3, r2
 8001a72:	009b      	lsls	r3, r3, #2
 8001a74:	440b      	add	r3, r1
 8001a76:	3344      	adds	r3, #68	@ 0x44
 8001a78:	681b      	ldr	r3, [r3, #0]
 8001a7a:	1c59      	adds	r1, r3, #1
 8001a7c:	6878      	ldr	r0, [r7, #4]
 8001a7e:	4613      	mov	r3, r2
 8001a80:	011b      	lsls	r3, r3, #4
 8001a82:	1a9b      	subs	r3, r3, r2
 8001a84:	009b      	lsls	r3, r3, #2
 8001a86:	4403      	add	r3, r0
 8001a88:	3344      	adds	r3, #68	@ 0x44
 8001a8a:	6019      	str	r1, [r3, #0]
      if (hhcd->hc[chnum].ErrCnt > 2U)
 8001a8c:	78fa      	ldrb	r2, [r7, #3]
 8001a8e:	6879      	ldr	r1, [r7, #4]
 8001a90:	4613      	mov	r3, r2
 8001a92:	011b      	lsls	r3, r3, #4
 8001a94:	1a9b      	subs	r3, r3, r2
 8001a96:	009b      	lsls	r3, r3, #2
 8001a98:	440b      	add	r3, r1
 8001a9a:	3344      	adds	r3, #68	@ 0x44
 8001a9c:	681b      	ldr	r3, [r3, #0]
 8001a9e:	2b02      	cmp	r3, #2
 8001aa0:	d922      	bls.n	8001ae8 <HCD_HC_OUT_IRQHandler+0x4ee>
      {
        hhcd->hc[chnum].ErrCnt = 0U;
 8001aa2:	78fa      	ldrb	r2, [r7, #3]
 8001aa4:	6879      	ldr	r1, [r7, #4]
 8001aa6:	4613      	mov	r3, r2
 8001aa8:	011b      	lsls	r3, r3, #4
 8001aaa:	1a9b      	subs	r3, r3, r2
 8001aac:	009b      	lsls	r3, r3, #2
 8001aae:	440b      	add	r3, r1
 8001ab0:	3344      	adds	r3, #68	@ 0x44
 8001ab2:	2200      	movs	r2, #0
 8001ab4:	601a      	str	r2, [r3, #0]
        hhcd->hc[chnum].urb_state = URB_ERROR;
 8001ab6:	78fa      	ldrb	r2, [r7, #3]
 8001ab8:	6879      	ldr	r1, [r7, #4]
 8001aba:	4613      	mov	r3, r2
 8001abc:	011b      	lsls	r3, r3, #4
 8001abe:	1a9b      	subs	r3, r3, r2
 8001ac0:	009b      	lsls	r3, r3, #2
 8001ac2:	440b      	add	r3, r1
 8001ac4:	334c      	adds	r3, #76	@ 0x4c
 8001ac6:	2204      	movs	r2, #4
 8001ac8:	701a      	strb	r2, [r3, #0]

#if (USE_HAL_HCD_REGISTER_CALLBACKS == 1U)
        hhcd->HC_NotifyURBChangeCallback(hhcd, chnum, hhcd->hc[chnum].urb_state);
#else
        HAL_HCD_HC_NotifyURBChange_Callback(hhcd, chnum, hhcd->hc[chnum].urb_state);
 8001aca:	78fa      	ldrb	r2, [r7, #3]
 8001acc:	6879      	ldr	r1, [r7, #4]
 8001ace:	4613      	mov	r3, r2
 8001ad0:	011b      	lsls	r3, r3, #4
 8001ad2:	1a9b      	subs	r3, r3, r2
 8001ad4:	009b      	lsls	r3, r3, #2
 8001ad6:	440b      	add	r3, r1
 8001ad8:	334c      	adds	r3, #76	@ 0x4c
 8001ada:	781a      	ldrb	r2, [r3, #0]
 8001adc:	78fb      	ldrb	r3, [r7, #3]
 8001ade:	4619      	mov	r1, r3
 8001ae0:	6878      	ldr	r0, [r7, #4]
 8001ae2:	f7fe ff14 	bl	800090e <HAL_HCD_HC_NotifyURBChange_Callback>
 8001ae6:	e022      	b.n	8001b2e <HCD_HC_OUT_IRQHandler+0x534>
#endif /* USE_HAL_HCD_REGISTER_CALLBACKS */
      }
      else
      {
        hhcd->hc[chnum].urb_state = URB_NOTREADY;
 8001ae8:	78fa      	ldrb	r2, [r7, #3]
 8001aea:	6879      	ldr	r1, [r7, #4]
 8001aec:	4613      	mov	r3, r2
 8001aee:	011b      	lsls	r3, r3, #4
 8001af0:	1a9b      	subs	r3, r3, r2
 8001af2:	009b      	lsls	r3, r3, #2
 8001af4:	440b      	add	r3, r1
 8001af6:	334c      	adds	r3, #76	@ 0x4c
 8001af8:	2202      	movs	r2, #2
 8001afa:	701a      	strb	r2, [r3, #0]

        /* Re-activate the channel  */
        tmpreg = USBx_HC(chnum)->HCCHAR;
 8001afc:	78fb      	ldrb	r3, [r7, #3]
 8001afe:	015a      	lsls	r2, r3, #5
 8001b00:	693b      	ldr	r3, [r7, #16]
 8001b02:	4413      	add	r3, r2
 8001b04:	f503 63a0 	add.w	r3, r3, #1280	@ 0x500
 8001b08:	681b      	ldr	r3, [r3, #0]
 8001b0a:	60fb      	str	r3, [r7, #12]
        tmpreg &= ~USB_OTG_HCCHAR_CHDIS;
 8001b0c:	68fb      	ldr	r3, [r7, #12]
 8001b0e:	f023 4380 	bic.w	r3, r3, #1073741824	@ 0x40000000
 8001b12:	60fb      	str	r3, [r7, #12]
        tmpreg |= USB_OTG_HCCHAR_CHENA;
 8001b14:	68fb      	ldr	r3, [r7, #12]
 8001b16:	f043 4300 	orr.w	r3, r3, #2147483648	@ 0x80000000
 8001b1a:	60fb      	str	r3, [r7, #12]
        USBx_HC(chnum)->HCCHAR = tmpreg;
 8001b1c:	78fb      	ldrb	r3, [r7, #3]
 8001b1e:	015a      	lsls	r2, r3, #5
 8001b20:	693b      	ldr	r3, [r7, #16]
 8001b22:	4413      	add	r3, r2
 8001b24:	f503 63a0 	add.w	r3, r3, #1280	@ 0x500
 8001b28:	461a      	mov	r2, r3
 8001b2a:	68fb      	ldr	r3, [r7, #12]
 8001b2c:	6013      	str	r3, [r2, #0]
      }
    }
    __HAL_HCD_CLEAR_HC_INT(chnum, USB_OTG_HCINT_TXERR);
 8001b2e:	78fb      	ldrb	r3, [r7, #3]
 8001b30:	015a      	lsls	r2, r3, #5
 8001b32:	693b      	ldr	r3, [r7, #16]
 8001b34:	4413      	add	r3, r2
 8001b36:	f503 63a0 	add.w	r3, r3, #1280	@ 0x500
 8001b3a:	461a      	mov	r2, r3
 8001b3c:	2380      	movs	r3, #128	@ 0x80
 8001b3e:	6093      	str	r3, [r2, #8]
 8001b40:	e217      	b.n	8001f72 <HCD_HC_OUT_IRQHandler+0x978>
  }
  else if (__HAL_HCD_GET_CH_FLAG(hhcd, chnum, USB_OTG_HCINT_DTERR))
 8001b42:	687b      	ldr	r3, [r7, #4]
 8001b44:	681b      	ldr	r3, [r3, #0]
 8001b46:	78fa      	ldrb	r2, [r7, #3]
 8001b48:	4611      	mov	r1, r2
 8001b4a:	4618      	mov	r0, r3
 8001b4c:	f000 fc2d 	bl	80023aa <USB_ReadChInterrupts>
 8001b50:	4603      	mov	r3, r0
 8001b52:	f403 6380 	and.w	r3, r3, #1024	@ 0x400
 8001b56:	f5b3 6f80 	cmp.w	r3, #1024	@ 0x400
 8001b5a:	d11b      	bne.n	8001b94 <HCD_HC_OUT_IRQHandler+0x59a>
  {
    hhcd->hc[chnum].state = HC_DATATGLERR;
 8001b5c:	78fa      	ldrb	r2, [r7, #3]
 8001b5e:	6879      	ldr	r1, [r7, #4]
 8001b60:	4613      	mov	r3, r2
 8001b62:	011b      	lsls	r3, r3, #4
 8001b64:	1a9b      	subs	r3, r3, r2
 8001b66:	009b      	lsls	r3, r3, #2
 8001b68:	440b      	add	r3, r1
 8001b6a:	334d      	adds	r3, #77	@ 0x4d
 8001b6c:	2209      	movs	r2, #9
 8001b6e:	701a      	strb	r2, [r3, #0]
    (void)USB_HC_Halt(hhcd->Instance, chnum);
 8001b70:	687b      	ldr	r3, [r7, #4]
 8001b72:	681b      	ldr	r3, [r3, #0]
 8001b74:	78fa      	ldrb	r2, [r7, #3]
 8001b76:	4611      	mov	r1, r2
 8001b78:	4618      	mov	r0, r3
 8001b7a:	f000 fc8f 	bl	800249c <USB_HC_Halt>
    __HAL_HCD_CLEAR_HC_INT(chnum, USB_OTG_HCINT_DTERR);
 8001b7e:	78fb      	ldrb	r3, [r7, #3]
 8001b80:	015a      	lsls	r2, r3, #5
 8001b82:	693b      	ldr	r3, [r7, #16]
 8001b84:	4413      	add	r3, r2
 8001b86:	f503 63a0 	add.w	r3, r3, #1280	@ 0x500
 8001b8a:	461a      	mov	r2, r3
 8001b8c:	f44f 6380 	mov.w	r3, #1024	@ 0x400
 8001b90:	6093      	str	r3, [r2, #8]
 8001b92:	e1ee      	b.n	8001f72 <HCD_HC_OUT_IRQHandler+0x978>
  }
  else if (__HAL_HCD_GET_CH_FLAG(hhcd, chnum, USB_OTG_HCINT_CHH))
 8001b94:	687b      	ldr	r3, [r7, #4]
 8001b96:	681b      	ldr	r3, [r3, #0]
 8001b98:	78fa      	ldrb	r2, [r7, #3]
 8001b9a:	4611      	mov	r1, r2
 8001b9c:	4618      	mov	r0, r3
 8001b9e:	f000 fc04 	bl	80023aa <USB_ReadChInterrupts>
 8001ba2:	4603      	mov	r3, r0
 8001ba4:	f003 0302 	and.w	r3, r3, #2
 8001ba8:	2b02      	cmp	r3, #2
 8001baa:	f040 81df 	bne.w	8001f6c <HCD_HC_OUT_IRQHandler+0x972>
  {
    __HAL_HCD_CLEAR_HC_INT(chnum, USB_OTG_HCINT_CHH);
 8001bae:	78fb      	ldrb	r3, [r7, #3]
 8001bb0:	015a      	lsls	r2, r3, #5
 8001bb2:	693b      	ldr	r3, [r7, #16]
 8001bb4:	4413      	add	r3, r2
 8001bb6:	f503 63a0 	add.w	r3, r3, #1280	@ 0x500
 8001bba:	461a      	mov	r2, r3
 8001bbc:	2302      	movs	r3, #2
 8001bbe:	6093      	str	r3, [r2, #8]

    if (hhcd->hc[chnum].state == HC_XFRC)
 8001bc0:	78fa      	ldrb	r2, [r7, #3]
 8001bc2:	6879      	ldr	r1, [r7, #4]
 8001bc4:	4613      	mov	r3, r2
 8001bc6:	011b      	lsls	r3, r3, #4
 8001bc8:	1a9b      	subs	r3, r3, r2
 8001bca:	009b      	lsls	r3, r3, #2
 8001bcc:	440b      	add	r3, r1
 8001bce:	334d      	adds	r3, #77	@ 0x4d
 8001bd0:	781b      	ldrb	r3, [r3, #0]
 8001bd2:	2b01      	cmp	r3, #1
 8001bd4:	f040 8093 	bne.w	8001cfe <HCD_HC_OUT_IRQHandler+0x704>
    {
      hhcd->hc[chnum].state = HC_HALTED;
 8001bd8:	78fa      	ldrb	r2, [r7, #3]
 8001bda:	6879      	ldr	r1, [r7, #4]
 8001bdc:	4613      	mov	r3, r2
 8001bde:	011b      	lsls	r3, r3, #4
 8001be0:	1a9b      	subs	r3, r3, r2
 8001be2:	009b      	lsls	r3, r3, #2
 8001be4:	440b      	add	r3, r1
 8001be6:	334d      	adds	r3, #77	@ 0x4d
 8001be8:	2202      	movs	r2, #2
 8001bea:	701a      	strb	r2, [r3, #0]
      hhcd->hc[chnum].urb_state = URB_DONE;
 8001bec:	78fa      	ldrb	r2, [r7, #3]
 8001bee:	6879      	ldr	r1, [r7, #4]
 8001bf0:	4613      	mov	r3, r2
 8001bf2:	011b      	lsls	r3, r3, #4
 8001bf4:	1a9b      	subs	r3, r3, r2
 8001bf6:	009b      	lsls	r3, r3, #2
 8001bf8:	440b      	add	r3, r1
 8001bfa:	334c      	adds	r3, #76	@ 0x4c
 8001bfc:	2201      	movs	r2, #1
 8001bfe:	701a      	strb	r2, [r3, #0]

      if ((hhcd->hc[chnum].ep_type == EP_TYPE_BULK) ||
 8001c00:	78fa      	ldrb	r2, [r7, #3]
 8001c02:	6879      	ldr	r1, [r7, #4]
 8001c04:	4613      	mov	r3, r2
 8001c06:	011b      	lsls	r3, r3, #4
 8001c08:	1a9b      	subs	r3, r3, r2
 8001c0a:	009b      	lsls	r3, r3, #2
 8001c0c:	440b      	add	r3, r1
 8001c0e:	3326      	adds	r3, #38	@ 0x26
 8001c10:	781b      	ldrb	r3, [r3, #0]
 8001c12:	2b02      	cmp	r3, #2
 8001c14:	d00b      	beq.n	8001c2e <HCD_HC_OUT_IRQHandler+0x634>
          (hhcd->hc[chnum].ep_type == EP_TYPE_INTR))
 8001c16:	78fa      	ldrb	r2, [r7, #3]
 8001c18:	6879      	ldr	r1, [r7, #4]
 8001c1a:	4613      	mov	r3, r2
 8001c1c:	011b      	lsls	r3, r3, #4
 8001c1e:	1a9b      	subs	r3, r3, r2
 8001c20:	009b      	lsls	r3, r3, #2
 8001c22:	440b      	add	r3, r1
 8001c24:	3326      	adds	r3, #38	@ 0x26
 8001c26:	781b      	ldrb	r3, [r3, #0]
      if ((hhcd->hc[chnum].ep_type == EP_TYPE_BULK) ||
 8001c28:	2b03      	cmp	r3, #3
 8001c2a:	f040 8190 	bne.w	8001f4e <HCD_HC_OUT_IRQHandler+0x954>
      {
        if (hhcd->Init.dma_enable == 0U)
 8001c2e:	687b      	ldr	r3, [r7, #4]
 8001c30:	799b      	ldrb	r3, [r3, #6]
 8001c32:	2b00      	cmp	r3, #0
 8001c34:	d115      	bne.n	8001c62 <HCD_HC_OUT_IRQHandler+0x668>
        {
          hhcd->hc[chnum].toggle_out ^= 1U;
 8001c36:	78fa      	ldrb	r2, [r7, #3]
 8001c38:	6879      	ldr	r1, [r7, #4]
 8001c3a:	4613      	mov	r3, r2
 8001c3c:	011b      	lsls	r3, r3, #4
 8001c3e:	1a9b      	subs	r3, r3, r2
 8001c40:	009b      	lsls	r3, r3, #2
 8001c42:	440b      	add	r3, r1
 8001c44:	333d      	adds	r3, #61	@ 0x3d
 8001c46:	781b      	ldrb	r3, [r3, #0]
 8001c48:	78fa      	ldrb	r2, [r7, #3]
 8001c4a:	f083 0301 	eor.w	r3, r3, #1
 8001c4e:	b2d8      	uxtb	r0, r3
 8001c50:	6879      	ldr	r1, [r7, #4]
 8001c52:	4613      	mov	r3, r2
 8001c54:	011b      	lsls	r3, r3, #4
 8001c56:	1a9b      	subs	r3, r3, r2
 8001c58:	009b      	lsls	r3, r3, #2
 8001c5a:	440b      	add	r3, r1
 8001c5c:	333d      	adds	r3, #61	@ 0x3d
 8001c5e:	4602      	mov	r2, r0
 8001c60:	701a      	strb	r2, [r3, #0]
        }

        if ((hhcd->Init.dma_enable == 1U) && (hhcd->hc[chnum].xfer_len > 0U))
 8001c62:	687b      	ldr	r3, [r7, #4]
 8001c64:	799b      	ldrb	r3, [r3, #6]
 8001c66:	2b01      	cmp	r3, #1
 8001c68:	f040 8171 	bne.w	8001f4e <HCD_HC_OUT_IRQHandler+0x954>
 8001c6c:	78fa      	ldrb	r2, [r7, #3]
 8001c6e:	6879      	ldr	r1, [r7, #4]
 8001c70:	4613      	mov	r3, r2
 8001c72:	011b      	lsls	r3, r3, #4
 8001c74:	1a9b      	subs	r3, r3, r2
 8001c76:	009b      	lsls	r3, r3, #2
 8001c78:	440b      	add	r3, r1
 8001c7a:	3334      	adds	r3, #52	@ 0x34
 8001c7c:	681b      	ldr	r3, [r3, #0]
 8001c7e:	2b00      	cmp	r3, #0
 8001c80:	f000 8165 	beq.w	8001f4e <HCD_HC_OUT_IRQHandler+0x954>
        {
          num_packets = (hhcd->hc[chnum].xfer_len + hhcd->hc[chnum].max_packet - 1U) / hhcd->hc[chnum].max_packet;
 8001c84:	78fa      	ldrb	r2, [r7, #3]
 8001c86:	6879      	ldr	r1, [r7, #4]
 8001c88:	4613      	mov	r3, r2
 8001c8a:	011b      	lsls	r3, r3, #4
 8001c8c:	1a9b      	subs	r3, r3, r2
 8001c8e:	009b      	lsls	r3, r3, #2
 8001c90:	440b      	add	r3, r1
 8001c92:	3334      	adds	r3, #52	@ 0x34
 8001c94:	6819      	ldr	r1, [r3, #0]
 8001c96:	78fa      	ldrb	r2, [r7, #3]
 8001c98:	6878      	ldr	r0, [r7, #4]
 8001c9a:	4613      	mov	r3, r2
 8001c9c:	011b      	lsls	r3, r3, #4
 8001c9e:	1a9b      	subs	r3, r3, r2
 8001ca0:	009b      	lsls	r3, r3, #2
 8001ca2:	4403      	add	r3, r0
 8001ca4:	3328      	adds	r3, #40	@ 0x28
 8001ca6:	881b      	ldrh	r3, [r3, #0]
 8001ca8:	440b      	add	r3, r1
 8001caa:	1e59      	subs	r1, r3, #1
 8001cac:	78fa      	ldrb	r2, [r7, #3]
 8001cae:	6878      	ldr	r0, [r7, #4]
 8001cb0:	4613      	mov	r3, r2
 8001cb2:	011b      	lsls	r3, r3, #4
 8001cb4:	1a9b      	subs	r3, r3, r2
 8001cb6:	009b      	lsls	r3, r3, #2
 8001cb8:	4403      	add	r3, r0
 8001cba:	3328      	adds	r3, #40	@ 0x28
 8001cbc:	881b      	ldrh	r3, [r3, #0]
 8001cbe:	fbb1 f3f3 	udiv	r3, r1, r3
 8001cc2:	60bb      	str	r3, [r7, #8]

          if ((num_packets & 1U) != 0U)
 8001cc4:	68bb      	ldr	r3, [r7, #8]
 8001cc6:	f003 0301 	and.w	r3, r3, #1
 8001cca:	2b00      	cmp	r3, #0
 8001ccc:	f000 813f 	beq.w	8001f4e <HCD_HC_OUT_IRQHandler+0x954>
          {
            hhcd->hc[chnum].toggle_out ^= 1U;
 8001cd0:	78fa      	ldrb	r2, [r7, #3]
 8001cd2:	6879      	ldr	r1, [r7, #4]
 8001cd4:	4613      	mov	r3, r2
 8001cd6:	011b      	lsls	r3, r3, #4
 8001cd8:	1a9b      	subs	r3, r3, r2
 8001cda:	009b      	lsls	r3, r3, #2
 8001cdc:	440b      	add	r3, r1
 8001cde:	333d      	adds	r3, #61	@ 0x3d
 8001ce0:	781b      	ldrb	r3, [r3, #0]
 8001ce2:	78fa      	ldrb	r2, [r7, #3]
 8001ce4:	f083 0301 	eor.w	r3, r3, #1
 8001ce8:	b2d8      	uxtb	r0, r3
 8001cea:	6879      	ldr	r1, [r7, #4]
 8001cec:	4613      	mov	r3, r2
 8001cee:	011b      	lsls	r3, r3, #4
 8001cf0:	1a9b      	subs	r3, r3, r2
 8001cf2:	009b      	lsls	r3, r3, #2
 8001cf4:	440b      	add	r3, r1
 8001cf6:	333d      	adds	r3, #61	@ 0x3d
 8001cf8:	4602      	mov	r2, r0
 8001cfa:	701a      	strb	r2, [r3, #0]
 8001cfc:	e127      	b.n	8001f4e <HCD_HC_OUT_IRQHandler+0x954>
          }
        }
      }
    }
    else if (hhcd->hc[chnum].state == HC_ACK)
 8001cfe:	78fa      	ldrb	r2, [r7, #3]
 8001d00:	6879      	ldr	r1, [r7, #4]
 8001d02:	4613      	mov	r3, r2
 8001d04:	011b      	lsls	r3, r3, #4
 8001d06:	1a9b      	subs	r3, r3, r2
 8001d08:	009b      	lsls	r3, r3, #2
 8001d0a:	440b      	add	r3, r1
 8001d0c:	334d      	adds	r3, #77	@ 0x4d
 8001d0e:	781b      	ldrb	r3, [r3, #0]
 8001d10:	2b03      	cmp	r3, #3
 8001d12:	d120      	bne.n	8001d56 <HCD_HC_OUT_IRQHandler+0x75c>
    {
      hhcd->hc[chnum].state = HC_HALTED;
 8001d14:	78fa      	ldrb	r2, [r7, #3]
 8001d16:	6879      	ldr	r1, [r7, #4]
 8001d18:	4613      	mov	r3, r2
 8001d1a:	011b      	lsls	r3, r3, #4
 8001d1c:	1a9b      	subs	r3, r3, r2
 8001d1e:	009b      	lsls	r3, r3, #2
 8001d20:	440b      	add	r3, r1
 8001d22:	334d      	adds	r3, #77	@ 0x4d
 8001d24:	2202      	movs	r2, #2
 8001d26:	701a      	strb	r2, [r3, #0]

      if (hhcd->hc[chnum].do_csplit == 1U)
 8001d28:	78fa      	ldrb	r2, [r7, #3]
 8001d2a:	6879      	ldr	r1, [r7, #4]
 8001d2c:	4613      	mov	r3, r2
 8001d2e:	011b      	lsls	r3, r3, #4
 8001d30:	1a9b      	subs	r3, r3, r2
 8001d32:	009b      	lsls	r3, r3, #2
 8001d34:	440b      	add	r3, r1
 8001d36:	331b      	adds	r3, #27
 8001d38:	781b      	ldrb	r3, [r3, #0]
 8001d3a:	2b01      	cmp	r3, #1
 8001d3c:	f040 8107 	bne.w	8001f4e <HCD_HC_OUT_IRQHandler+0x954>
      {
        hhcd->hc[chnum].urb_state = URB_NOTREADY;
 8001d40:	78fa      	ldrb	r2, [r7, #3]
 8001d42:	6879      	ldr	r1, [r7, #4]
 8001d44:	4613      	mov	r3, r2
 8001d46:	011b      	lsls	r3, r3, #4
 8001d48:	1a9b      	subs	r3, r3, r2
 8001d4a:	009b      	lsls	r3, r3, #2
 8001d4c:	440b      	add	r3, r1
 8001d4e:	334c      	adds	r3, #76	@ 0x4c
 8001d50:	2202      	movs	r2, #2
 8001d52:	701a      	strb	r2, [r3, #0]
 8001d54:	e0fb      	b.n	8001f4e <HCD_HC_OUT_IRQHandler+0x954>
      }
    }
    else if (hhcd->hc[chnum].state == HC_NAK)
 8001d56:	78fa      	ldrb	r2, [r7, #3]
 8001d58:	6879      	ldr	r1, [r7, #4]
 8001d5a:	4613      	mov	r3, r2
 8001d5c:	011b      	lsls	r3, r3, #4
 8001d5e:	1a9b      	subs	r3, r3, r2
 8001d60:	009b      	lsls	r3, r3, #2
 8001d62:	440b      	add	r3, r1
 8001d64:	334d      	adds	r3, #77	@ 0x4d
 8001d66:	781b      	ldrb	r3, [r3, #0]
 8001d68:	2b04      	cmp	r3, #4
 8001d6a:	d13a      	bne.n	8001de2 <HCD_HC_OUT_IRQHandler+0x7e8>
    {
      hhcd->hc[chnum].state = HC_HALTED;
 8001d6c:	78fa      	ldrb	r2, [r7, #3]
 8001d6e:	6879      	ldr	r1, [r7, #4]
 8001d70:	4613      	mov	r3, r2
 8001d72:	011b      	lsls	r3, r3, #4
 8001d74:	1a9b      	subs	r3, r3, r2
 8001d76:	009b      	lsls	r3, r3, #2
 8001d78:	440b      	add	r3, r1
 8001d7a:	334d      	adds	r3, #77	@ 0x4d
 8001d7c:	2202      	movs	r2, #2
 8001d7e:	701a      	strb	r2, [r3, #0]
      hhcd->hc[chnum].urb_state = URB_NOTREADY;
 8001d80:	78fa      	ldrb	r2, [r7, #3]
 8001d82:	6879      	ldr	r1, [r7, #4]
 8001d84:	4613      	mov	r3, r2
 8001d86:	011b      	lsls	r3, r3, #4
 8001d88:	1a9b      	subs	r3, r3, r2
 8001d8a:	009b      	lsls	r3, r3, #2
 8001d8c:	440b      	add	r3, r1
 8001d8e:	334c      	adds	r3, #76	@ 0x4c
 8001d90:	2202      	movs	r2, #2
 8001d92:	701a      	strb	r2, [r3, #0]

      if (hhcd->hc[chnum].do_csplit == 1U)
 8001d94:	78fa      	ldrb	r2, [r7, #3]
 8001d96:	6879      	ldr	r1, [r7, #4]
 8001d98:	4613      	mov	r3, r2
 8001d9a:	011b      	lsls	r3, r3, #4
 8001d9c:	1a9b      	subs	r3, r3, r2
 8001d9e:	009b      	lsls	r3, r3, #2
 8001da0:	440b      	add	r3, r1
 8001da2:	331b      	adds	r3, #27
 8001da4:	781b      	ldrb	r3, [r3, #0]
 8001da6:	2b01      	cmp	r3, #1
 8001da8:	f040 80d1 	bne.w	8001f4e <HCD_HC_OUT_IRQHandler+0x954>
      {
        hhcd->hc[chnum].do_csplit = 0U;
 8001dac:	78fa      	ldrb	r2, [r7, #3]
 8001dae:	6879      	ldr	r1, [r7, #4]
 8001db0:	4613      	mov	r3, r2
 8001db2:	011b      	lsls	r3, r3, #4
 8001db4:	1a9b      	subs	r3, r3, r2
 8001db6:	009b      	lsls	r3, r3, #2
 8001db8:	440b      	add	r3, r1
 8001dba:	331b      	adds	r3, #27
 8001dbc:	2200      	movs	r2, #0
 8001dbe:	701a      	strb	r2, [r3, #0]
        __HAL_HCD_CLEAR_HC_CSPLT(chnum);
 8001dc0:	78fb      	ldrb	r3, [r7, #3]
 8001dc2:	015a      	lsls	r2, r3, #5
 8001dc4:	693b      	ldr	r3, [r7, #16]
 8001dc6:	4413      	add	r3, r2
 8001dc8:	f503 63a0 	add.w	r3, r3, #1280	@ 0x500
 8001dcc:	685b      	ldr	r3, [r3, #4]
 8001dce:	78fa      	ldrb	r2, [r7, #3]
 8001dd0:	0151      	lsls	r1, r2, #5
 8001dd2:	693a      	ldr	r2, [r7, #16]
 8001dd4:	440a      	add	r2, r1
 8001dd6:	f502 62a0 	add.w	r2, r2, #1280	@ 0x500
 8001dda:	f423 3380 	bic.w	r3, r3, #65536	@ 0x10000
 8001dde:	6053      	str	r3, [r2, #4]
 8001de0:	e0b5      	b.n	8001f4e <HCD_HC_OUT_IRQHandler+0x954>
      }
    }
    else if (hhcd->hc[chnum].state == HC_NYET)
 8001de2:	78fa      	ldrb	r2, [r7, #3]
 8001de4:	6879      	ldr	r1, [r7, #4]
 8001de6:	4613      	mov	r3, r2
 8001de8:	011b      	lsls	r3, r3, #4
 8001dea:	1a9b      	subs	r3, r3, r2
 8001dec:	009b      	lsls	r3, r3, #2
 8001dee:	440b      	add	r3, r1
 8001df0:	334d      	adds	r3, #77	@ 0x4d
 8001df2:	781b      	ldrb	r3, [r3, #0]
 8001df4:	2b05      	cmp	r3, #5
 8001df6:	d114      	bne.n	8001e22 <HCD_HC_OUT_IRQHandler+0x828>
    {
      hhcd->hc[chnum].state = HC_HALTED;
 8001df8:	78fa      	ldrb	r2, [r7, #3]
 8001dfa:	6879      	ldr	r1, [r7, #4]
 8001dfc:	4613      	mov	r3, r2
 8001dfe:	011b      	lsls	r3, r3, #4
 8001e00:	1a9b      	subs	r3, r3, r2
 8001e02:	009b      	lsls	r3, r3, #2
 8001e04:	440b      	add	r3, r1
 8001e06:	334d      	adds	r3, #77	@ 0x4d
 8001e08:	2202      	movs	r2, #2
 8001e0a:	701a      	strb	r2, [r3, #0]
      hhcd->hc[chnum].urb_state  = URB_NOTREADY;
 8001e0c:	78fa      	ldrb	r2, [r7, #3]
 8001e0e:	6879      	ldr	r1, [r7, #4]
 8001e10:	4613      	mov	r3, r2
 8001e12:	011b      	lsls	r3, r3, #4
 8001e14:	1a9b      	subs	r3, r3, r2
 8001e16:	009b      	lsls	r3, r3, #2
 8001e18:	440b      	add	r3, r1
 8001e1a:	334c      	adds	r3, #76	@ 0x4c
 8001e1c:	2202      	movs	r2, #2
 8001e1e:	701a      	strb	r2, [r3, #0]
 8001e20:	e095      	b.n	8001f4e <HCD_HC_OUT_IRQHandler+0x954>
    }
    else if (hhcd->hc[chnum].state == HC_STALL)
 8001e22:	78fa      	ldrb	r2, [r7, #3]
 8001e24:	6879      	ldr	r1, [r7, #4]
 8001e26:	4613      	mov	r3, r2
 8001e28:	011b      	lsls	r3, r3, #4
 8001e2a:	1a9b      	subs	r3, r3, r2
 8001e2c:	009b      	lsls	r3, r3, #2
 8001e2e:	440b      	add	r3, r1
 8001e30:	334d      	adds	r3, #77	@ 0x4d
 8001e32:	781b      	ldrb	r3, [r3, #0]
 8001e34:	2b06      	cmp	r3, #6
 8001e36:	d114      	bne.n	8001e62 <HCD_HC_OUT_IRQHandler+0x868>
    {
      hhcd->hc[chnum].state = HC_HALTED;
 8001e38:	78fa      	ldrb	r2, [r7, #3]
 8001e3a:	6879      	ldr	r1, [r7, #4]
 8001e3c:	4613      	mov	r3, r2
 8001e3e:	011b      	lsls	r3, r3, #4
 8001e40:	1a9b      	subs	r3, r3, r2
 8001e42:	009b      	lsls	r3, r3, #2
 8001e44:	440b      	add	r3, r1
 8001e46:	334d      	adds	r3, #77	@ 0x4d
 8001e48:	2202      	movs	r2, #2
 8001e4a:	701a      	strb	r2, [r3, #0]
      hhcd->hc[chnum].urb_state  = URB_STALL;
 8001e4c:	78fa      	ldrb	r2, [r7, #3]
 8001e4e:	6879      	ldr	r1, [r7, #4]
 8001e50:	4613      	mov	r3, r2
 8001e52:	011b      	lsls	r3, r3, #4
 8001e54:	1a9b      	subs	r3, r3, r2
 8001e56:	009b      	lsls	r3, r3, #2
 8001e58:	440b      	add	r3, r1
 8001e5a:	334c      	adds	r3, #76	@ 0x4c
 8001e5c:	2205      	movs	r2, #5
 8001e5e:	701a      	strb	r2, [r3, #0]
 8001e60:	e075      	b.n	8001f4e <HCD_HC_OUT_IRQHandler+0x954>
    }
    else if ((hhcd->hc[chnum].state == HC_XACTERR) ||
 8001e62:	78fa      	ldrb	r2, [r7, #3]
 8001e64:	6879      	ldr	r1, [r7, #4]
 8001e66:	4613      	mov	r3, r2
 8001e68:	011b      	lsls	r3, r3, #4
 8001e6a:	1a9b      	subs	r3, r3, r2
 8001e6c:	009b      	lsls	r3, r3, #2
 8001e6e:	440b      	add	r3, r1
 8001e70:	334d      	adds	r3, #77	@ 0x4d
 8001e72:	781b      	ldrb	r3, [r3, #0]
 8001e74:	2b07      	cmp	r3, #7
 8001e76:	d00a      	beq.n	8001e8e <HCD_HC_OUT_IRQHandler+0x894>
             (hhcd->hc[chnum].state == HC_DATATGLERR))
 8001e78:	78fa      	ldrb	r2, [r7, #3]
 8001e7a:	6879      	ldr	r1, [r7, #4]
 8001e7c:	4613      	mov	r3, r2
 8001e7e:	011b      	lsls	r3, r3, #4
 8001e80:	1a9b      	subs	r3, r3, r2
 8001e82:	009b      	lsls	r3, r3, #2
 8001e84:	440b      	add	r3, r1
 8001e86:	334d      	adds	r3, #77	@ 0x4d
 8001e88:	781b      	ldrb	r3, [r3, #0]
    else if ((hhcd->hc[chnum].state == HC_XACTERR) ||
 8001e8a:	2b09      	cmp	r3, #9
 8001e8c:	d170      	bne.n	8001f70 <HCD_HC_OUT_IRQHandler+0x976>
    {
      hhcd->hc[chnum].state = HC_HALTED;
 8001e8e:	78fa      	ldrb	r2, [r7, #3]
 8001e90:	6879      	ldr	r1, [r7, #4]
 8001e92:	4613      	mov	r3, r2
 8001e94:	011b      	lsls	r3, r3, #4
 8001e96:	1a9b      	subs	r3, r3, r2
 8001e98:	009b      	lsls	r3, r3, #2
 8001e9a:	440b      	add	r3, r1
 8001e9c:	334d      	adds	r3, #77	@ 0x4d
 8001e9e:	2202      	movs	r2, #2
 8001ea0:	701a      	strb	r2, [r3, #0]
      hhcd->hc[chnum].ErrCnt++;
 8001ea2:	78fa      	ldrb	r2, [r7, #3]
 8001ea4:	6879      	ldr	r1, [r7, #4]
 8001ea6:	4613      	mov	r3, r2
 8001ea8:	011b      	lsls	r3, r3, #4
 8001eaa:	1a9b      	subs	r3, r3, r2
 8001eac:	009b      	lsls	r3, r3, #2
 8001eae:	440b      	add	r3, r1
 8001eb0:	3344      	adds	r3, #68	@ 0x44
 8001eb2:	681b      	ldr	r3, [r3, #0]
 8001eb4:	1c59      	adds	r1, r3, #1
 8001eb6:	6878      	ldr	r0, [r7, #4]
 8001eb8:	4613      	mov	r3, r2
 8001eba:	011b      	lsls	r3, r3, #4
 8001ebc:	1a9b      	subs	r3, r3, r2
 8001ebe:	009b      	lsls	r3, r3, #2
 8001ec0:	4403      	add	r3, r0
 8001ec2:	3344      	adds	r3, #68	@ 0x44
 8001ec4:	6019      	str	r1, [r3, #0]
      if (hhcd->hc[chnum].ErrCnt > 2U)
 8001ec6:	78fa      	ldrb	r2, [r7, #3]
 8001ec8:	6879      	ldr	r1, [r7, #4]
 8001eca:	4613      	mov	r3, r2
 8001ecc:	011b      	lsls	r3, r3, #4
 8001ece:	1a9b      	subs	r3, r3, r2
 8001ed0:	009b      	lsls	r3, r3, #2
 8001ed2:	440b      	add	r3, r1
 8001ed4:	3344      	adds	r3, #68	@ 0x44
 8001ed6:	681b      	ldr	r3, [r3, #0]
 8001ed8:	2b02      	cmp	r3, #2
 8001eda:	d914      	bls.n	8001f06 <HCD_HC_OUT_IRQHandler+0x90c>
      {
        hhcd->hc[chnum].ErrCnt = 0U;
 8001edc:	78fa      	ldrb	r2, [r7, #3]
 8001ede:	6879      	ldr	r1, [r7, #4]
 8001ee0:	4613      	mov	r3, r2
 8001ee2:	011b      	lsls	r3, r3, #4
 8001ee4:	1a9b      	subs	r3, r3, r2
 8001ee6:	009b      	lsls	r3, r3, #2
 8001ee8:	440b      	add	r3, r1
 8001eea:	3344      	adds	r3, #68	@ 0x44
 8001eec:	2200      	movs	r2, #0
 8001eee:	601a      	str	r2, [r3, #0]
        hhcd->hc[chnum].urb_state = URB_ERROR;
 8001ef0:	78fa      	ldrb	r2, [r7, #3]
 8001ef2:	6879      	ldr	r1, [r7, #4]
 8001ef4:	4613      	mov	r3, r2
 8001ef6:	011b      	lsls	r3, r3, #4
 8001ef8:	1a9b      	subs	r3, r3, r2
 8001efa:	009b      	lsls	r3, r3, #2
 8001efc:	440b      	add	r3, r1
 8001efe:	334c      	adds	r3, #76	@ 0x4c
 8001f00:	2204      	movs	r2, #4
 8001f02:	701a      	strb	r2, [r3, #0]
      if (hhcd->hc[chnum].ErrCnt > 2U)
 8001f04:	e022      	b.n	8001f4c <HCD_HC_OUT_IRQHandler+0x952>
      }
      else
      {
        hhcd->hc[chnum].urb_state = URB_NOTREADY;
 8001f06:	78fa      	ldrb	r2, [r7, #3]
 8001f08:	6879      	ldr	r1, [r7, #4]
 8001f0a:	4613      	mov	r3, r2
 8001f0c:	011b      	lsls	r3, r3, #4
 8001f0e:	1a9b      	subs	r3, r3, r2
 8001f10:	009b      	lsls	r3, r3, #2
 8001f12:	440b      	add	r3, r1
 8001f14:	334c      	adds	r3, #76	@ 0x4c
 8001f16:	2202      	movs	r2, #2
 8001f18:	701a      	strb	r2, [r3, #0]

        /* re-activate the channel  */
        tmpreg = USBx_HC(chnum)->HCCHAR;
 8001f1a:	78fb      	ldrb	r3, [r7, #3]
 8001f1c:	015a      	lsls	r2, r3, #5
 8001f1e:	693b      	ldr	r3, [r7, #16]
 8001f20:	4413      	add	r3, r2
 8001f22:	f503 63a0 	add.w	r3, r3, #1280	@ 0x500
 8001f26:	681b      	ldr	r3, [r3, #0]
 8001f28:	60fb      	str	r3, [r7, #12]
        tmpreg &= ~USB_OTG_HCCHAR_CHDIS;
 8001f2a:	68fb      	ldr	r3, [r7, #12]
 8001f2c:	f023 4380 	bic.w	r3, r3, #1073741824	@ 0x40000000
 8001f30:	60fb      	str	r3, [r7, #12]
        tmpreg |= USB_OTG_HCCHAR_CHENA;
 8001f32:	68fb      	ldr	r3, [r7, #12]
 8001f34:	f043 4300 	orr.w	r3, r3, #2147483648	@ 0x80000000
 8001f38:	60fb      	str	r3, [r7, #12]
        USBx_HC(chnum)->HCCHAR = tmpreg;
 8001f3a:	78fb      	ldrb	r3, [r7, #3]
 8001f3c:	015a      	lsls	r2, r3, #5
 8001f3e:	693b      	ldr	r3, [r7, #16]
 8001f40:	4413      	add	r3, r2
 8001f42:	f503 63a0 	add.w	r3, r3, #1280	@ 0x500
 8001f46:	461a      	mov	r2, r3
 8001f48:	68fb      	ldr	r3, [r7, #12]
 8001f4a:	6013      	str	r3, [r2, #0]
      if (hhcd->hc[chnum].ErrCnt > 2U)
 8001f4c:	bf00      	nop
    }

#if (USE_HAL_HCD_REGISTER_CALLBACKS == 1U)
    hhcd->HC_NotifyURBChangeCallback(hhcd, chnum, hhcd->hc[chnum].urb_state);
#else
    HAL_HCD_HC_NotifyURBChange_Callback(hhcd, chnum, hhcd->hc[chnum].urb_state);
 8001f4e:	78fa      	ldrb	r2, [r7, #3]
 8001f50:	6879      	ldr	r1, [r7, #4]
 8001f52:	4613      	mov	r3, r2
 8001f54:	011b      	lsls	r3, r3, #4
 8001f56:	1a9b      	subs	r3, r3, r2
 8001f58:	009b      	lsls	r3, r3, #2
 8001f5a:	440b      	add	r3, r1
 8001f5c:	334c      	adds	r3, #76	@ 0x4c
 8001f5e:	781a      	ldrb	r2, [r3, #0]
 8001f60:	78fb      	ldrb	r3, [r7, #3]
 8001f62:	4619      	mov	r1, r3
 8001f64:	6878      	ldr	r0, [r7, #4]
 8001f66:	f7fe fcd2 	bl	800090e <HAL_HCD_HC_NotifyURBChange_Callback>
 8001f6a:	e002      	b.n	8001f72 <HCD_HC_OUT_IRQHandler+0x978>
#endif /* USE_HAL_HCD_REGISTER_CALLBACKS */
  }
  else
  {
    return;
 8001f6c:	bf00      	nop
 8001f6e:	e000      	b.n	8001f72 <HCD_HC_OUT_IRQHandler+0x978>
      return;
 8001f70:	bf00      	nop
  }
}
 8001f72:	3718      	adds	r7, #24
 8001f74:	46bd      	mov	sp, r7
 8001f76:	bd80      	pop	{r7, pc}

08001f78 <HCD_RXQLVL_IRQHandler>:
  * @brief  Handle Rx Queue Level interrupt requests.
  * @param  hhcd HCD handle
  * @retval none
  */
static void HCD_RXQLVL_IRQHandler(HCD_HandleTypeDef *hhcd)
{
 8001f78:	b580      	push	{r7, lr}
 8001f7a:	b08a      	sub	sp, #40	@ 0x28
 8001f7c:	af00      	add	r7, sp, #0
 8001f7e:	6078      	str	r0, [r7, #4]
  const USB_OTG_GlobalTypeDef *USBx = hhcd->Instance;
 8001f80:	687b      	ldr	r3, [r7, #4]
 8001f82:	681b      	ldr	r3, [r3, #0]
 8001f84:	627b      	str	r3, [r7, #36]	@ 0x24
  uint32_t USBx_BASE = (uint32_t)USBx;
 8001f86:	6a7b      	ldr	r3, [r7, #36]	@ 0x24
 8001f88:	623b      	str	r3, [r7, #32]
  uint32_t GrxstspReg;
  uint32_t xferSizePktCnt;
  uint32_t tmpreg;
  uint32_t chnum;

  GrxstspReg = hhcd->Instance->GRXSTSP;
 8001f8a:	687b      	ldr	r3, [r7, #4]
 8001f8c:	681b      	ldr	r3, [r3, #0]
 8001f8e:	6a1b      	ldr	r3, [r3, #32]
 8001f90:	61fb      	str	r3, [r7, #28]
  chnum = GrxstspReg & USB_OTG_GRXSTSP_EPNUM;
 8001f92:	69fb      	ldr	r3, [r7, #28]
 8001f94:	f003 030f 	and.w	r3, r3, #15
 8001f98:	61bb      	str	r3, [r7, #24]
  pktsts = (GrxstspReg & USB_OTG_GRXSTSP_PKTSTS) >> 17;
 8001f9a:	69fb      	ldr	r3, [r7, #28]
 8001f9c:	0c5b      	lsrs	r3, r3, #17
 8001f9e:	f003 030f 	and.w	r3, r3, #15
 8001fa2:	617b      	str	r3, [r7, #20]
  pktcnt = (GrxstspReg & USB_OTG_GRXSTSP_BCNT) >> 4;
 8001fa4:	69fb      	ldr	r3, [r7, #28]
 8001fa6:	091b      	lsrs	r3, r3, #4
 8001fa8:	f3c3 030a 	ubfx	r3, r3, #0, #11
 8001fac:	613b      	str	r3, [r7, #16]

  switch (pktsts)
 8001fae:	697b      	ldr	r3, [r7, #20]
 8001fb0:	2b02      	cmp	r3, #2
 8001fb2:	d004      	beq.n	8001fbe <HCD_RXQLVL_IRQHandler+0x46>
 8001fb4:	697b      	ldr	r3, [r7, #20]
 8001fb6:	2b05      	cmp	r3, #5
 8001fb8:	f000 80b6 	beq.w	8002128 <HCD_RXQLVL_IRQHandler+0x1b0>
      break;

    case GRXSTS_PKTSTS_IN_XFER_COMP:
    case GRXSTS_PKTSTS_CH_HALTED:
    default:
      break;
 8001fbc:	e0b7      	b.n	800212e <HCD_RXQLVL_IRQHandler+0x1b6>
      if ((pktcnt > 0U) && (hhcd->hc[chnum].xfer_buff != (void *)0))
 8001fbe:	693b      	ldr	r3, [r7, #16]
 8001fc0:	2b00      	cmp	r3, #0
 8001fc2:	f000 80b3 	beq.w	800212c <HCD_RXQLVL_IRQHandler+0x1b4>
 8001fc6:	6879      	ldr	r1, [r7, #4]
 8001fc8:	69ba      	ldr	r2, [r7, #24]
 8001fca:	4613      	mov	r3, r2
 8001fcc:	011b      	lsls	r3, r3, #4
 8001fce:	1a9b      	subs	r3, r3, r2
 8001fd0:	009b      	lsls	r3, r3, #2
 8001fd2:	440b      	add	r3, r1
 8001fd4:	332c      	adds	r3, #44	@ 0x2c
 8001fd6:	681b      	ldr	r3, [r3, #0]
 8001fd8:	2b00      	cmp	r3, #0
 8001fda:	f000 80a7 	beq.w	800212c <HCD_RXQLVL_IRQHandler+0x1b4>
        if ((hhcd->hc[chnum].xfer_count + pktcnt) <= hhcd->hc[chnum].xfer_len)
 8001fde:	6879      	ldr	r1, [r7, #4]
 8001fe0:	69ba      	ldr	r2, [r7, #24]
 8001fe2:	4613      	mov	r3, r2
 8001fe4:	011b      	lsls	r3, r3, #4
 8001fe6:	1a9b      	subs	r3, r3, r2
 8001fe8:	009b      	lsls	r3, r3, #2
 8001fea:	440b      	add	r3, r1
 8001fec:	3338      	adds	r3, #56	@ 0x38
 8001fee:	681a      	ldr	r2, [r3, #0]
 8001ff0:	693b      	ldr	r3, [r7, #16]
 8001ff2:	18d1      	adds	r1, r2, r3
 8001ff4:	6878      	ldr	r0, [r7, #4]
 8001ff6:	69ba      	ldr	r2, [r7, #24]
 8001ff8:	4613      	mov	r3, r2
 8001ffa:	011b      	lsls	r3, r3, #4
 8001ffc:	1a9b      	subs	r3, r3, r2
 8001ffe:	009b      	lsls	r3, r3, #2
 8002000:	4403      	add	r3, r0
 8002002:	3334      	adds	r3, #52	@ 0x34
 8002004:	681b      	ldr	r3, [r3, #0]
 8002006:	4299      	cmp	r1, r3
 8002008:	f200 8083 	bhi.w	8002112 <HCD_RXQLVL_IRQHandler+0x19a>
          (void)USB_ReadPacket(hhcd->Instance,
 800200c:	687b      	ldr	r3, [r7, #4]
 800200e:	6818      	ldr	r0, [r3, #0]
 8002010:	6879      	ldr	r1, [r7, #4]
 8002012:	69ba      	ldr	r2, [r7, #24]
 8002014:	4613      	mov	r3, r2
 8002016:	011b      	lsls	r3, r3, #4
 8002018:	1a9b      	subs	r3, r3, r2
 800201a:	009b      	lsls	r3, r3, #2
 800201c:	440b      	add	r3, r1
 800201e:	332c      	adds	r3, #44	@ 0x2c
 8002020:	681b      	ldr	r3, [r3, #0]
 8002022:	693a      	ldr	r2, [r7, #16]
 8002024:	b292      	uxth	r2, r2
 8002026:	4619      	mov	r1, r3
 8002028:	f000 f956 	bl	80022d8 <USB_ReadPacket>
          hhcd->hc[chnum].xfer_buff += pktcnt;
 800202c:	6879      	ldr	r1, [r7, #4]
 800202e:	69ba      	ldr	r2, [r7, #24]
 8002030:	4613      	mov	r3, r2
 8002032:	011b      	lsls	r3, r3, #4
 8002034:	1a9b      	subs	r3, r3, r2
 8002036:	009b      	lsls	r3, r3, #2
 8002038:	440b      	add	r3, r1
 800203a:	332c      	adds	r3, #44	@ 0x2c
 800203c:	681a      	ldr	r2, [r3, #0]
 800203e:	693b      	ldr	r3, [r7, #16]
 8002040:	18d1      	adds	r1, r2, r3
 8002042:	6878      	ldr	r0, [r7, #4]
 8002044:	69ba      	ldr	r2, [r7, #24]
 8002046:	4613      	mov	r3, r2
 8002048:	011b      	lsls	r3, r3, #4
 800204a:	1a9b      	subs	r3, r3, r2
 800204c:	009b      	lsls	r3, r3, #2
 800204e:	4403      	add	r3, r0
 8002050:	332c      	adds	r3, #44	@ 0x2c
 8002052:	6019      	str	r1, [r3, #0]
          hhcd->hc[chnum].xfer_count += pktcnt;
 8002054:	6879      	ldr	r1, [r7, #4]
 8002056:	69ba      	ldr	r2, [r7, #24]
 8002058:	4613      	mov	r3, r2
 800205a:	011b      	lsls	r3, r3, #4
 800205c:	1a9b      	subs	r3, r3, r2
 800205e:	009b      	lsls	r3, r3, #2
 8002060:	440b      	add	r3, r1
 8002062:	3338      	adds	r3, #56	@ 0x38
 8002064:	681a      	ldr	r2, [r3, #0]
 8002066:	693b      	ldr	r3, [r7, #16]
 8002068:	18d1      	adds	r1, r2, r3
 800206a:	6878      	ldr	r0, [r7, #4]
 800206c:	69ba      	ldr	r2, [r7, #24]
 800206e:	4613      	mov	r3, r2
 8002070:	011b      	lsls	r3, r3, #4
 8002072:	1a9b      	subs	r3, r3, r2
 8002074:	009b      	lsls	r3, r3, #2
 8002076:	4403      	add	r3, r0
 8002078:	3338      	adds	r3, #56	@ 0x38
 800207a:	6019      	str	r1, [r3, #0]
          xferSizePktCnt = (USBx_HC(chnum)->HCTSIZ & USB_OTG_HCTSIZ_PKTCNT) >> 19;
 800207c:	69bb      	ldr	r3, [r7, #24]
 800207e:	015a      	lsls	r2, r3, #5
 8002080:	6a3b      	ldr	r3, [r7, #32]
 8002082:	4413      	add	r3, r2
 8002084:	f503 63a0 	add.w	r3, r3, #1280	@ 0x500
 8002088:	691b      	ldr	r3, [r3, #16]
 800208a:	0cdb      	lsrs	r3, r3, #19
 800208c:	f3c3 0309 	ubfx	r3, r3, #0, #10
 8002090:	60fb      	str	r3, [r7, #12]
          if ((hhcd->hc[chnum].max_packet == pktcnt) && (xferSizePktCnt > 0U))
 8002092:	6879      	ldr	r1, [r7, #4]
 8002094:	69ba      	ldr	r2, [r7, #24]
 8002096:	4613      	mov	r3, r2
 8002098:	011b      	lsls	r3, r3, #4
 800209a:	1a9b      	subs	r3, r3, r2
 800209c:	009b      	lsls	r3, r3, #2
 800209e:	440b      	add	r3, r1
 80020a0:	3328      	adds	r3, #40	@ 0x28
 80020a2:	881b      	ldrh	r3, [r3, #0]
 80020a4:	461a      	mov	r2, r3
 80020a6:	693b      	ldr	r3, [r7, #16]
 80020a8:	4293      	cmp	r3, r2
 80020aa:	d13f      	bne.n	800212c <HCD_RXQLVL_IRQHandler+0x1b4>
 80020ac:	68fb      	ldr	r3, [r7, #12]
 80020ae:	2b00      	cmp	r3, #0
 80020b0:	d03c      	beq.n	800212c <HCD_RXQLVL_IRQHandler+0x1b4>
            tmpreg = USBx_HC(chnum)->HCCHAR;
 80020b2:	69bb      	ldr	r3, [r7, #24]
 80020b4:	015a      	lsls	r2, r3, #5
 80020b6:	6a3b      	ldr	r3, [r7, #32]
 80020b8:	4413      	add	r3, r2
 80020ba:	f503 63a0 	add.w	r3, r3, #1280	@ 0x500
 80020be:	681b      	ldr	r3, [r3, #0]
 80020c0:	60bb      	str	r3, [r7, #8]
            tmpreg &= ~USB_OTG_HCCHAR_CHDIS;
 80020c2:	68bb      	ldr	r3, [r7, #8]
 80020c4:	f023 4380 	bic.w	r3, r3, #1073741824	@ 0x40000000
 80020c8:	60bb      	str	r3, [r7, #8]
            tmpreg |= USB_OTG_HCCHAR_CHENA;
 80020ca:	68bb      	ldr	r3, [r7, #8]
 80020cc:	f043 4300 	orr.w	r3, r3, #2147483648	@ 0x80000000
 80020d0:	60bb      	str	r3, [r7, #8]
            USBx_HC(chnum)->HCCHAR = tmpreg;
 80020d2:	69bb      	ldr	r3, [r7, #24]
 80020d4:	015a      	lsls	r2, r3, #5
 80020d6:	6a3b      	ldr	r3, [r7, #32]
 80020d8:	4413      	add	r3, r2
 80020da:	f503 63a0 	add.w	r3, r3, #1280	@ 0x500
 80020de:	461a      	mov	r2, r3
 80020e0:	68bb      	ldr	r3, [r7, #8]
 80020e2:	6013      	str	r3, [r2, #0]
            hhcd->hc[chnum].toggle_in ^= 1U;
 80020e4:	6879      	ldr	r1, [r7, #4]
 80020e6:	69ba      	ldr	r2, [r7, #24]
 80020e8:	4613      	mov	r3, r2
 80020ea:	011b      	lsls	r3, r3, #4
 80020ec:	1a9b      	subs	r3, r3, r2
 80020ee:	009b      	lsls	r3, r3, #2
 80020f0:	440b      	add	r3, r1
 80020f2:	333c      	adds	r3, #60	@ 0x3c
 80020f4:	781b      	ldrb	r3, [r3, #0]
 80020f6:	f083 0301 	eor.w	r3, r3, #1
 80020fa:	b2d8      	uxtb	r0, r3
 80020fc:	6879      	ldr	r1, [r7, #4]
 80020fe:	69ba      	ldr	r2, [r7, #24]
 8002100:	4613      	mov	r3, r2
 8002102:	011b      	lsls	r3, r3, #4
 8002104:	1a9b      	subs	r3, r3, r2
 8002106:	009b      	lsls	r3, r3, #2
 8002108:	440b      	add	r3, r1
 800210a:	333c      	adds	r3, #60	@ 0x3c
 800210c:	4602      	mov	r2, r0
 800210e:	701a      	strb	r2, [r3, #0]
      break;
 8002110:	e00c      	b.n	800212c <HCD_RXQLVL_IRQHandler+0x1b4>
          hhcd->hc[chnum].urb_state = URB_ERROR;
 8002112:	6879      	ldr	r1, [r7, #4]
 8002114:	69ba      	ldr	r2, [r7, #24]
 8002116:	4613      	mov	r3, r2
 8002118:	011b      	lsls	r3, r3, #4
 800211a:	1a9b      	subs	r3, r3, r2
 800211c:	009b      	lsls	r3, r3, #2
 800211e:	440b      	add	r3, r1
 8002120:	334c      	adds	r3, #76	@ 0x4c
 8002122:	2204      	movs	r2, #4
 8002124:	701a      	strb	r2, [r3, #0]
      break;
 8002126:	e001      	b.n	800212c <HCD_RXQLVL_IRQHandler+0x1b4>
      break;
 8002128:	bf00      	nop
 800212a:	e000      	b.n	800212e <HCD_RXQLVL_IRQHandler+0x1b6>
      break;
 800212c:	bf00      	nop
  }
}
 800212e:	bf00      	nop
 8002130:	3728      	adds	r7, #40	@ 0x28
 8002132:	46bd      	mov	sp, r7
 8002134:	bd80      	pop	{r7, pc}

08002136 <HCD_Port_IRQHandler>:
  * @brief  Handle Host Port interrupt requests.
  * @param  hhcd HCD handle
  * @retval None
  */
static void HCD_Port_IRQHandler(HCD_HandleTypeDef *hhcd)
{
 8002136:	b580      	push	{r7, lr}
 8002138:	b086      	sub	sp, #24
 800213a:	af00      	add	r7, sp, #0
 800213c:	6078      	str	r0, [r7, #4]
  const USB_OTG_GlobalTypeDef *USBx = hhcd->Instance;
 800213e:	687b      	ldr	r3, [r7, #4]
 8002140:	681b      	ldr	r3, [r3, #0]
 8002142:	617b      	str	r3, [r7, #20]
  uint32_t USBx_BASE = (uint32_t)USBx;
 8002144:	697b      	ldr	r3, [r7, #20]
 8002146:	613b      	str	r3, [r7, #16]
  __IO uint32_t hprt0;
  __IO uint32_t hprt0_dup;

  /* Handle Host Port Interrupts */
  hprt0 = USBx_HPRT0;
 8002148:	693b      	ldr	r3, [r7, #16]
 800214a:	f503 6388 	add.w	r3, r3, #1088	@ 0x440
 800214e:	681b      	ldr	r3, [r3, #0]
 8002150:	60fb      	str	r3, [r7, #12]
  hprt0_dup = USBx_HPRT0;
 8002152:	693b      	ldr	r3, [r7, #16]
 8002154:	f503 6388 	add.w	r3, r3, #1088	@ 0x440
 8002158:	681b      	ldr	r3, [r3, #0]
 800215a:	60bb      	str	r3, [r7, #8]

  hprt0_dup &= ~(USB_OTG_HPRT_PENA | USB_OTG_HPRT_PCDET | \
 800215c:	68bb      	ldr	r3, [r7, #8]
 800215e:	f023 032e 	bic.w	r3, r3, #46	@ 0x2e
 8002162:	60bb      	str	r3, [r7, #8]
                 USB_OTG_HPRT_PENCHNG | USB_OTG_HPRT_POCCHNG);

  /* Check whether Port Connect detected */
  if ((hprt0 & USB_OTG_HPRT_PCDET) == USB_OTG_HPRT_PCDET)
 8002164:	68fb      	ldr	r3, [r7, #12]
 8002166:	f003 0302 	and.w	r3, r3, #2
 800216a:	2b02      	cmp	r3, #2
 800216c:	d10b      	bne.n	8002186 <HCD_Port_IRQHandler+0x50>
  {
    if ((hprt0 & USB_OTG_HPRT_PCSTS) == USB_OTG_HPRT_PCSTS)
 800216e:	68fb      	ldr	r3, [r7, #12]
 8002170:	f003 0301 	and.w	r3, r3, #1
 8002174:	2b01      	cmp	r3, #1
 8002176:	d102      	bne.n	800217e <HCD_Port_IRQHandler+0x48>
    {
#if (USE_HAL_HCD_REGISTER_CALLBACKS == 1U)
      hhcd->ConnectCallback(hhcd);
#else
      HAL_HCD_Connect_Callback(hhcd);
 8002178:	6878      	ldr	r0, [r7, #4]
 800217a:	f7fe fba4 	bl	80008c6 <HAL_HCD_Connect_Callback>
#endif /* USE_HAL_HCD_REGISTER_CALLBACKS */
    }
    hprt0_dup |= USB_OTG_HPRT_PCDET;
 800217e:	68bb      	ldr	r3, [r7, #8]
 8002180:	f043 0302 	orr.w	r3, r3, #2
 8002184:	60bb      	str	r3, [r7, #8]
  }

  /* Check whether Port Enable Changed */
  if ((hprt0 & USB_OTG_HPRT_PENCHNG) == USB_OTG_HPRT_PENCHNG)
 8002186:	68fb      	ldr	r3, [r7, #12]
 8002188:	f003 0308 	and.w	r3, r3, #8
 800218c:	2b08      	cmp	r3, #8
 800218e:	d132      	bne.n	80021f6 <HCD_Port_IRQHandler+0xc0>
  {
    hprt0_dup |= USB_OTG_HPRT_PENCHNG;
 8002190:	68bb      	ldr	r3, [r7, #8]
 8002192:	f043 0308 	orr.w	r3, r3, #8
 8002196:	60bb      	str	r3, [r7, #8]

    if ((hprt0 & USB_OTG_HPRT_PENA) == USB_OTG_HPRT_PENA)
 8002198:	68fb      	ldr	r3, [r7, #12]
 800219a:	f003 0304 	and.w	r3, r3, #4
 800219e:	2b04      	cmp	r3, #4
 80021a0:	d126      	bne.n	80021f0 <HCD_Port_IRQHandler+0xba>
    {
      if (hhcd->Init.phy_itface == USB_OTG_EMBEDDED_PHY)
 80021a2:	687b      	ldr	r3, [r7, #4]
 80021a4:	7a5b      	ldrb	r3, [r3, #9]
 80021a6:	2b02      	cmp	r3, #2
 80021a8:	d113      	bne.n	80021d2 <HCD_Port_IRQHandler+0x9c>
      {
        if ((hprt0 & USB_OTG_HPRT_PSPD) == (HPRT0_PRTSPD_LOW_SPEED << 17))
 80021aa:	68fb      	ldr	r3, [r7, #12]
 80021ac:	f403 23c0 	and.w	r3, r3, #393216	@ 0x60000
 80021b0:	f5b3 2f80 	cmp.w	r3, #262144	@ 0x40000
 80021b4:	d106      	bne.n	80021c4 <HCD_Port_IRQHandler+0x8e>
        {
          (void)USB_InitFSLSPClkSel(hhcd->Instance, HCFG_6_MHZ);
 80021b6:	687b      	ldr	r3, [r7, #4]
 80021b8:	681b      	ldr	r3, [r3, #0]
 80021ba:	2102      	movs	r1, #2
 80021bc:	4618      	mov	r0, r3
 80021be:	f000 f921 	bl	8002404 <USB_InitFSLSPClkSel>
 80021c2:	e011      	b.n	80021e8 <HCD_Port_IRQHandler+0xb2>
        }
        else
        {
          (void)USB_InitFSLSPClkSel(hhcd->Instance, HCFG_48_MHZ);
 80021c4:	687b      	ldr	r3, [r7, #4]
 80021c6:	681b      	ldr	r3, [r3, #0]
 80021c8:	2101      	movs	r1, #1
 80021ca:	4618      	mov	r0, r3
 80021cc:	f000 f91a 	bl	8002404 <USB_InitFSLSPClkSel>
 80021d0:	e00a      	b.n	80021e8 <HCD_Port_IRQHandler+0xb2>
        }
      }
      else
      {
        if (hhcd->Init.speed == HCD_SPEED_FULL)
 80021d2:	687b      	ldr	r3, [r7, #4]
 80021d4:	79db      	ldrb	r3, [r3, #7]
 80021d6:	2b01      	cmp	r3, #1
 80021d8:	d106      	bne.n	80021e8 <HCD_Port_IRQHandler+0xb2>
        {
          USBx_HOST->HFIR = HFIR_60_MHZ;
 80021da:	693b      	ldr	r3, [r7, #16]
 80021dc:	f503 6380 	add.w	r3, r3, #1024	@ 0x400
 80021e0:	461a      	mov	r2, r3
 80021e2:	f64e 2360 	movw	r3, #60000	@ 0xea60
 80021e6:	6053      	str	r3, [r2, #4]
        }
      }
#if (USE_HAL_HCD_REGISTER_CALLBACKS == 1U)
      hhcd->PortEnabledCallback(hhcd);
#else
      HAL_HCD_PortEnabled_Callback(hhcd);
 80021e8:	6878      	ldr	r0, [r7, #4]
 80021ea:	f7fe fb7e 	bl	80008ea <HAL_HCD_PortEnabled_Callback>
 80021ee:	e002      	b.n	80021f6 <HCD_Port_IRQHandler+0xc0>
    else
    {
#if (USE_HAL_HCD_REGISTER_CALLBACKS == 1U)
      hhcd->PortDisabledCallback(hhcd);
#else
      HAL_HCD_PortDisabled_Callback(hhcd);
 80021f0:	6878      	ldr	r0, [r7, #4]
 80021f2:	f7fe fb83 	bl	80008fc <HAL_HCD_PortDisabled_Callback>
#endif /* USE_HAL_HCD_REGISTER_CALLBACKS */
    }
  }

  /* Check for an overcurrent */
  if ((hprt0 & USB_OTG_HPRT_POCCHNG) == USB_OTG_HPRT_POCCHNG)
 80021f6:	68fb      	ldr	r3, [r7, #12]
 80021f8:	f003 0320 	and.w	r3, r3, #32
 80021fc:	2b20      	cmp	r3, #32
 80021fe:	d103      	bne.n	8002208 <HCD_Port_IRQHandler+0xd2>
  {
    hprt0_dup |= USB_OTG_HPRT_POCCHNG;
 8002200:	68bb      	ldr	r3, [r7, #8]
 8002202:	f043 0320 	orr.w	r3, r3, #32
 8002206:	60bb      	str	r3, [r7, #8]
  }

  /* Clear Port Interrupts */
  USBx_HPRT0 = hprt0_dup;
 8002208:	693b      	ldr	r3, [r7, #16]
 800220a:	f503 6388 	add.w	r3, r3, #1088	@ 0x440
 800220e:	461a      	mov	r2, r3
 8002210:	68bb      	ldr	r3, [r7, #8]
 8002212:	6013      	str	r3, [r2, #0]
}
 8002214:	bf00      	nop
 8002216:	3718      	adds	r7, #24
 8002218:	46bd      	mov	sp, r7
 800221a:	bd80      	pop	{r7, pc}

0800221c <USB_FlushTxFifo>:
  *         This parameter can be a value from 1 to 15
            15 means Flush all Tx FIFOs
  * @retval HAL status
  */
HAL_StatusTypeDef USB_FlushTxFifo(USB_OTG_GlobalTypeDef *USBx, uint32_t num)
{
 800221c:	b480      	push	{r7}
 800221e:	b085      	sub	sp, #20
 8002220:	af00      	add	r7, sp, #0
 8002222:	6078      	str	r0, [r7, #4]
 8002224:	6039      	str	r1, [r7, #0]
  __IO uint32_t count = 0U;
 8002226:	2300      	movs	r3, #0
 8002228:	60fb      	str	r3, [r7, #12]

  /* Wait for AHB master IDLE state. */
  do
  {
    count++;
 800222a:	68fb      	ldr	r3, [r7, #12]
 800222c:	3301      	adds	r3, #1
 800222e:	60fb      	str	r3, [r7, #12]

    if (count > HAL_USB_TIMEOUT)
 8002230:	68fb      	ldr	r3, [r7, #12]
 8002232:	f1b3 6f70 	cmp.w	r3, #251658240	@ 0xf000000
 8002236:	d901      	bls.n	800223c <USB_FlushTxFifo+0x20>
    {
      return HAL_TIMEOUT;
 8002238:	2303      	movs	r3, #3
 800223a:	e01b      	b.n	8002274 <USB_FlushTxFifo+0x58>
    }
  } while ((USBx->GRSTCTL & USB_OTG_GRSTCTL_AHBIDL) == 0U);
 800223c:	687b      	ldr	r3, [r7, #4]
 800223e:	691b      	ldr	r3, [r3, #16]
 8002240:	2b00      	cmp	r3, #0
 8002242:	daf2      	bge.n	800222a <USB_FlushTxFifo+0xe>

  /* Flush TX Fifo */
  count = 0U;
 8002244:	2300      	movs	r3, #0
 8002246:	60fb      	str	r3, [r7, #12]
  USBx->GRSTCTL = (USB_OTG_GRSTCTL_TXFFLSH | (num << 6));
 8002248:	683b      	ldr	r3, [r7, #0]
 800224a:	019b      	lsls	r3, r3, #6
 800224c:	f043 0220 	orr.w	r2, r3, #32
 8002250:	687b      	ldr	r3, [r7, #4]
 8002252:	611a      	str	r2, [r3, #16]

  do
  {
    count++;
 8002254:	68fb      	ldr	r3, [r7, #12]
 8002256:	3301      	adds	r3, #1
 8002258:	60fb      	str	r3, [r7, #12]

    if (count > HAL_USB_TIMEOUT)
 800225a:	68fb      	ldr	r3, [r7, #12]
 800225c:	f1b3 6f70 	cmp.w	r3, #251658240	@ 0xf000000
 8002260:	d901      	bls.n	8002266 <USB_FlushTxFifo+0x4a>
    {
      return HAL_TIMEOUT;
 8002262:	2303      	movs	r3, #3
 8002264:	e006      	b.n	8002274 <USB_FlushTxFifo+0x58>
    }
  } while ((USBx->GRSTCTL & USB_OTG_GRSTCTL_TXFFLSH) == USB_OTG_GRSTCTL_TXFFLSH);
 8002266:	687b      	ldr	r3, [r7, #4]
 8002268:	691b      	ldr	r3, [r3, #16]
 800226a:	f003 0320 	and.w	r3, r3, #32
 800226e:	2b20      	cmp	r3, #32
 8002270:	d0f0      	beq.n	8002254 <USB_FlushTxFifo+0x38>

  return HAL_OK;
 8002272:	2300      	movs	r3, #0
}
 8002274:	4618      	mov	r0, r3
 8002276:	3714      	adds	r7, #20
 8002278:	46bd      	mov	sp, r7
 800227a:	bc80      	pop	{r7}
 800227c:	4770      	bx	lr

0800227e <USB_FlushRxFifo>:
  * @brief  USB_FlushRxFifo  Flush Rx FIFO
  * @param  USBx  Selected device
  * @retval HAL status
  */
HAL_StatusTypeDef USB_FlushRxFifo(USB_OTG_GlobalTypeDef *USBx)
{
 800227e:	b480      	push	{r7}
 8002280:	b085      	sub	sp, #20
 8002282:	af00      	add	r7, sp, #0
 8002284:	6078      	str	r0, [r7, #4]
  __IO uint32_t count = 0U;
 8002286:	2300      	movs	r3, #0
 8002288:	60fb      	str	r3, [r7, #12]

  /* Wait for AHB master IDLE state. */
  do
  {
    count++;
 800228a:	68fb      	ldr	r3, [r7, #12]
 800228c:	3301      	adds	r3, #1
 800228e:	60fb      	str	r3, [r7, #12]

    if (count > HAL_USB_TIMEOUT)
 8002290:	68fb      	ldr	r3, [r7, #12]
 8002292:	f1b3 6f70 	cmp.w	r3, #251658240	@ 0xf000000
 8002296:	d901      	bls.n	800229c <USB_FlushRxFifo+0x1e>
    {
      return HAL_TIMEOUT;
 8002298:	2303      	movs	r3, #3
 800229a:	e018      	b.n	80022ce <USB_FlushRxFifo+0x50>
    }
  } while ((USBx->GRSTCTL & USB_OTG_GRSTCTL_AHBIDL) == 0U);
 800229c:	687b      	ldr	r3, [r7, #4]
 800229e:	691b      	ldr	r3, [r3, #16]
 80022a0:	2b00      	cmp	r3, #0
 80022a2:	daf2      	bge.n	800228a <USB_FlushRxFifo+0xc>

  /* Flush RX Fifo */
  count = 0U;
 80022a4:	2300      	movs	r3, #0
 80022a6:	60fb      	str	r3, [r7, #12]
  USBx->GRSTCTL = USB_OTG_GRSTCTL_RXFFLSH;
 80022a8:	687b      	ldr	r3, [r7, #4]
 80022aa:	2210      	movs	r2, #16
 80022ac:	611a      	str	r2, [r3, #16]

  do
  {
    count++;
 80022ae:	68fb      	ldr	r3, [r7, #12]
 80022b0:	3301      	adds	r3, #1
 80022b2:	60fb      	str	r3, [r7, #12]

    if (count > HAL_USB_TIMEOUT)
 80022b4:	68fb      	ldr	r3, [r7, #12]
 80022b6:	f1b3 6f70 	cmp.w	r3, #251658240	@ 0xf000000
 80022ba:	d901      	bls.n	80022c0 <USB_FlushRxFifo+0x42>
    {
      return HAL_TIMEOUT;
 80022bc:	2303      	movs	r3, #3
 80022be:	e006      	b.n	80022ce <USB_FlushRxFifo+0x50>
    }
  } while ((USBx->GRSTCTL & USB_OTG_GRSTCTL_RXFFLSH) == USB_OTG_GRSTCTL_RXFFLSH);
 80022c0:	687b      	ldr	r3, [r7, #4]
 80022c2:	691b      	ldr	r3, [r3, #16]
 80022c4:	f003 0310 	and.w	r3, r3, #16
 80022c8:	2b10      	cmp	r3, #16
 80022ca:	d0f0      	beq.n	80022ae <USB_FlushRxFifo+0x30>

  return HAL_OK;
 80022cc:	2300      	movs	r3, #0
}
 80022ce:	4618      	mov	r0, r3
 80022d0:	3714      	adds	r7, #20
 80022d2:	46bd      	mov	sp, r7
 80022d4:	bc80      	pop	{r7}
 80022d6:	4770      	bx	lr

080022d8 <USB_ReadPacket>:
  * @param  dest  source pointer
  * @param  len  Number of bytes to read
  * @retval pointer to destination buffer
  */
void *USB_ReadPacket(const USB_OTG_GlobalTypeDef *USBx, uint8_t *dest, uint16_t len)
{
 80022d8:	b480      	push	{r7}
 80022da:	b08b      	sub	sp, #44	@ 0x2c
 80022dc:	af00      	add	r7, sp, #0
 80022de:	60f8      	str	r0, [r7, #12]
 80022e0:	60b9      	str	r1, [r7, #8]
 80022e2:	4613      	mov	r3, r2
 80022e4:	80fb      	strh	r3, [r7, #6]
  uint32_t USBx_BASE = (uint32_t)USBx;
 80022e6:	68fb      	ldr	r3, [r7, #12]
 80022e8:	61bb      	str	r3, [r7, #24]
  uint8_t *pDest = dest;
 80022ea:	68bb      	ldr	r3, [r7, #8]
 80022ec:	627b      	str	r3, [r7, #36]	@ 0x24
  uint32_t pData;
  uint32_t i;
  uint32_t count32b = (uint32_t)len >> 2U;
 80022ee:	88fb      	ldrh	r3, [r7, #6]
 80022f0:	089b      	lsrs	r3, r3, #2
 80022f2:	b29b      	uxth	r3, r3
 80022f4:	617b      	str	r3, [r7, #20]
  uint16_t remaining_bytes = len % 4U;
 80022f6:	88fb      	ldrh	r3, [r7, #6]
 80022f8:	f003 0303 	and.w	r3, r3, #3
 80022fc:	83fb      	strh	r3, [r7, #30]

  for (i = 0U; i < count32b; i++)
 80022fe:	2300      	movs	r3, #0
 8002300:	623b      	str	r3, [r7, #32]
 8002302:	e014      	b.n	800232e <USB_ReadPacket+0x56>
  {
    __UNALIGNED_UINT32_WRITE(pDest, USBx_DFIFO(0U));
 8002304:	69bb      	ldr	r3, [r7, #24]
 8002306:	f503 5380 	add.w	r3, r3, #4096	@ 0x1000
 800230a:	681a      	ldr	r2, [r3, #0]
 800230c:	6a7b      	ldr	r3, [r7, #36]	@ 0x24
 800230e:	601a      	str	r2, [r3, #0]
    pDest++;
 8002310:	6a7b      	ldr	r3, [r7, #36]	@ 0x24
 8002312:	3301      	adds	r3, #1
 8002314:	627b      	str	r3, [r7, #36]	@ 0x24
    pDest++;
 8002316:	6a7b      	ldr	r3, [r7, #36]	@ 0x24
 8002318:	3301      	adds	r3, #1
 800231a:	627b      	str	r3, [r7, #36]	@ 0x24
    pDest++;
 800231c:	6a7b      	ldr	r3, [r7, #36]	@ 0x24
 800231e:	3301      	adds	r3, #1
 8002320:	627b      	str	r3, [r7, #36]	@ 0x24
    pDest++;
 8002322:	6a7b      	ldr	r3, [r7, #36]	@ 0x24
 8002324:	3301      	adds	r3, #1
 8002326:	627b      	str	r3, [r7, #36]	@ 0x24
  for (i = 0U; i < count32b; i++)
 8002328:	6a3b      	ldr	r3, [r7, #32]
 800232a:	3301      	adds	r3, #1
 800232c:	623b      	str	r3, [r7, #32]
 800232e:	6a3a      	ldr	r2, [r7, #32]
 8002330:	697b      	ldr	r3, [r7, #20]
 8002332:	429a      	cmp	r2, r3
 8002334:	d3e6      	bcc.n	8002304 <USB_ReadPacket+0x2c>
  }

  /* When Number of data is not word aligned, read the remaining byte */
  if (remaining_bytes != 0U)
 8002336:	8bfb      	ldrh	r3, [r7, #30]
 8002338:	2b00      	cmp	r3, #0
 800233a:	d01e      	beq.n	800237a <USB_ReadPacket+0xa2>
  {
    i = 0U;
 800233c:	2300      	movs	r3, #0
 800233e:	623b      	str	r3, [r7, #32]
    __UNALIGNED_UINT32_WRITE(&pData, USBx_DFIFO(0U));
 8002340:	69bb      	ldr	r3, [r7, #24]
 8002342:	f503 5380 	add.w	r3, r3, #4096	@ 0x1000
 8002346:	461a      	mov	r2, r3
 8002348:	f107 0310 	add.w	r3, r7, #16
 800234c:	6812      	ldr	r2, [r2, #0]
 800234e:	601a      	str	r2, [r3, #0]

    do
    {
      *(uint8_t *)pDest = (uint8_t)(pData >> (8U * (uint8_t)(i)));
 8002350:	693a      	ldr	r2, [r7, #16]
 8002352:	6a3b      	ldr	r3, [r7, #32]
 8002354:	b2db      	uxtb	r3, r3
 8002356:	00db      	lsls	r3, r3, #3
 8002358:	fa22 f303 	lsr.w	r3, r2, r3
 800235c:	b2da      	uxtb	r2, r3
 800235e:	6a7b      	ldr	r3, [r7, #36]	@ 0x24
 8002360:	701a      	strb	r2, [r3, #0]
      i++;
 8002362:	6a3b      	ldr	r3, [r7, #32]
 8002364:	3301      	adds	r3, #1
 8002366:	623b      	str	r3, [r7, #32]
      pDest++;
 8002368:	6a7b      	ldr	r3, [r7, #36]	@ 0x24
 800236a:	3301      	adds	r3, #1
 800236c:	627b      	str	r3, [r7, #36]	@ 0x24
      remaining_bytes--;
 800236e:	8bfb      	ldrh	r3, [r7, #30]
 8002370:	3b01      	subs	r3, #1
 8002372:	83fb      	strh	r3, [r7, #30]
    } while (remaining_bytes != 0U);
 8002374:	8bfb      	ldrh	r3, [r7, #30]
 8002376:	2b00      	cmp	r3, #0
 8002378:	d1ea      	bne.n	8002350 <USB_ReadPacket+0x78>
  }

  return ((void *)pDest);
 800237a:	6a7b      	ldr	r3, [r7, #36]	@ 0x24
}
 800237c:	4618      	mov	r0, r3
 800237e:	372c      	adds	r7, #44	@ 0x2c
 8002380:	46bd      	mov	sp, r7
 8002382:	bc80      	pop	{r7}
 8002384:	4770      	bx	lr

08002386 <USB_ReadInterrupts>:
  * @brief  USB_ReadInterrupts: return the global USB interrupt status
  * @param  USBx  Selected device
  * @retval USB Global Interrupt status
  */
uint32_t USB_ReadInterrupts(USB_OTG_GlobalTypeDef const *USBx)
{
 8002386:	b480      	push	{r7}
 8002388:	b085      	sub	sp, #20
 800238a:	af00      	add	r7, sp, #0
 800238c:	6078      	str	r0, [r7, #4]
  uint32_t tmpreg;

  tmpreg = USBx->GINTSTS;
 800238e:	687b      	ldr	r3, [r7, #4]
 8002390:	695b      	ldr	r3, [r3, #20]
 8002392:	60fb      	str	r3, [r7, #12]
  tmpreg &= USBx->GINTMSK;
 8002394:	687b      	ldr	r3, [r7, #4]
 8002396:	699b      	ldr	r3, [r3, #24]
 8002398:	68fa      	ldr	r2, [r7, #12]
 800239a:	4013      	ands	r3, r2
 800239c:	60fb      	str	r3, [r7, #12]

  return tmpreg;
 800239e:	68fb      	ldr	r3, [r7, #12]
}
 80023a0:	4618      	mov	r0, r3
 80023a2:	3714      	adds	r7, #20
 80023a4:	46bd      	mov	sp, r7
 80023a6:	bc80      	pop	{r7}
 80023a8:	4770      	bx	lr

080023aa <USB_ReadChInterrupts>:
  * @param  USBx  Selected device
  * @param  chnum Channel number
  * @retval USB Channel Interrupt status
  */
uint32_t USB_ReadChInterrupts(const USB_OTG_GlobalTypeDef *USBx, uint8_t chnum)
{
 80023aa:	b480      	push	{r7}
 80023ac:	b085      	sub	sp, #20
 80023ae:	af00      	add	r7, sp, #0
 80023b0:	6078      	str	r0, [r7, #4]
 80023b2:	460b      	mov	r3, r1
 80023b4:	70fb      	strb	r3, [r7, #3]
  uint32_t USBx_BASE = (uint32_t)USBx;
 80023b6:	687b      	ldr	r3, [r7, #4]
 80023b8:	60fb      	str	r3, [r7, #12]
  uint32_t tmpreg;

  tmpreg = USBx_HC(chnum)->HCINT;
 80023ba:	78fb      	ldrb	r3, [r7, #3]
 80023bc:	015a      	lsls	r2, r3, #5
 80023be:	68fb      	ldr	r3, [r7, #12]
 80023c0:	4413      	add	r3, r2
 80023c2:	f503 63a0 	add.w	r3, r3, #1280	@ 0x500
 80023c6:	689b      	ldr	r3, [r3, #8]
 80023c8:	60bb      	str	r3, [r7, #8]
  tmpreg &= USBx_HC(chnum)->HCINTMSK;
 80023ca:	78fb      	ldrb	r3, [r7, #3]
 80023cc:	015a      	lsls	r2, r3, #5
 80023ce:	68fb      	ldr	r3, [r7, #12]
 80023d0:	4413      	add	r3, r2
 80023d2:	f503 63a0 	add.w	r3, r3, #1280	@ 0x500
 80023d6:	68db      	ldr	r3, [r3, #12]
 80023d8:	68ba      	ldr	r2, [r7, #8]
 80023da:	4013      	ands	r3, r2
 80023dc:	60bb      	str	r3, [r7, #8]

  return tmpreg;
 80023de:	68bb      	ldr	r3, [r7, #8]
}
 80023e0:	4618      	mov	r0, r3
 80023e2:	3714      	adds	r7, #20
 80023e4:	46bd      	mov	sp, r7
 80023e6:	bc80      	pop	{r7}
 80023e8:	4770      	bx	lr

080023ea <USB_GetMode>:
  *          This parameter can be one of these values:
  *           1 : Host
  *           0 : Device
  */
uint32_t USB_GetMode(const USB_OTG_GlobalTypeDef *USBx)
{
 80023ea:	b480      	push	{r7}
 80023ec:	b083      	sub	sp, #12
 80023ee:	af00      	add	r7, sp, #0
 80023f0:	6078      	str	r0, [r7, #4]
  return ((USBx->GINTSTS) & 0x1U);
 80023f2:	687b      	ldr	r3, [r7, #4]
 80023f4:	695b      	ldr	r3, [r3, #20]
 80023f6:	f003 0301 	and.w	r3, r3, #1
}
 80023fa:	4618      	mov	r0, r3
 80023fc:	370c      	adds	r7, #12
 80023fe:	46bd      	mov	sp, r7
 8002400:	bc80      	pop	{r7}
 8002402:	4770      	bx	lr

08002404 <USB_InitFSLSPClkSel>:
  *           HCFG_48_MHZ : Full Speed 48 MHz Clock
  *           HCFG_6_MHZ : Low Speed 6 MHz Clock
  * @retval HAL status
  */
HAL_StatusTypeDef USB_InitFSLSPClkSel(const USB_OTG_GlobalTypeDef *USBx, uint8_t freq)
{
 8002404:	b480      	push	{r7}
 8002406:	b085      	sub	sp, #20
 8002408:	af00      	add	r7, sp, #0
 800240a:	6078      	str	r0, [r7, #4]
 800240c:	460b      	mov	r3, r1
 800240e:	70fb      	strb	r3, [r7, #3]
  uint32_t USBx_BASE = (uint32_t)USBx;
 8002410:	687b      	ldr	r3, [r7, #4]
 8002412:	60fb      	str	r3, [r7, #12]

  USBx_HOST->HCFG &= ~(USB_OTG_HCFG_FSLSPCS);
 8002414:	68fb      	ldr	r3, [r7, #12]
 8002416:	f503 6380 	add.w	r3, r3, #1024	@ 0x400
 800241a:	681b      	ldr	r3, [r3, #0]
 800241c:	68fa      	ldr	r2, [r7, #12]
 800241e:	f502 6280 	add.w	r2, r2, #1024	@ 0x400
 8002422:	f023 0303 	bic.w	r3, r3, #3
 8002426:	6013      	str	r3, [r2, #0]
  USBx_HOST->HCFG |= (uint32_t)freq & USB_OTG_HCFG_FSLSPCS;
 8002428:	68fb      	ldr	r3, [r7, #12]
 800242a:	f503 6380 	add.w	r3, r3, #1024	@ 0x400
 800242e:	681a      	ldr	r2, [r3, #0]
 8002430:	78fb      	ldrb	r3, [r7, #3]
 8002432:	f003 0303 	and.w	r3, r3, #3
 8002436:	68f9      	ldr	r1, [r7, #12]
 8002438:	f501 6180 	add.w	r1, r1, #1024	@ 0x400
 800243c:	4313      	orrs	r3, r2
 800243e:	600b      	str	r3, [r1, #0]

  if (freq == HCFG_48_MHZ)
 8002440:	78fb      	ldrb	r3, [r7, #3]
 8002442:	2b01      	cmp	r3, #1
 8002444:	d107      	bne.n	8002456 <USB_InitFSLSPClkSel+0x52>
  {
    USBx_HOST->HFIR = HFIR_48_MHZ;
 8002446:	68fb      	ldr	r3, [r7, #12]
 8002448:	f503 6380 	add.w	r3, r3, #1024	@ 0x400
 800244c:	461a      	mov	r2, r3
 800244e:	f64b 3380 	movw	r3, #48000	@ 0xbb80
 8002452:	6053      	str	r3, [r2, #4]
 8002454:	e00c      	b.n	8002470 <USB_InitFSLSPClkSel+0x6c>
  }
  else if (freq == HCFG_6_MHZ)
 8002456:	78fb      	ldrb	r3, [r7, #3]
 8002458:	2b02      	cmp	r3, #2
 800245a:	d107      	bne.n	800246c <USB_InitFSLSPClkSel+0x68>
  {
    USBx_HOST->HFIR = HFIR_6_MHZ;
 800245c:	68fb      	ldr	r3, [r7, #12]
 800245e:	f503 6380 	add.w	r3, r3, #1024	@ 0x400
 8002462:	461a      	mov	r2, r3
 8002464:	f241 7370 	movw	r3, #6000	@ 0x1770
 8002468:	6053      	str	r3, [r2, #4]
 800246a:	e001      	b.n	8002470 <USB_InitFSLSPClkSel+0x6c>
  }
  else
  {
    return HAL_ERROR;
 800246c:	2301      	movs	r3, #1
 800246e:	e000      	b.n	8002472 <USB_InitFSLSPClkSel+0x6e>
  }

  return HAL_OK;
 8002470:	2300      	movs	r3, #0
}
 8002472:	4618      	mov	r0, r3
 8002474:	3714      	adds	r7, #20
 8002476:	46bd      	mov	sp, r7
 8002478:	bc80      	pop	{r7}
 800247a:	4770      	bx	lr

0800247c <USB_HC_ReadInterrupt>:
  * @brief Read all host channel interrupts status
  * @param  USBx  Selected device
  * @retval HAL state
  */
uint32_t USB_HC_ReadInterrupt(const USB_OTG_GlobalTypeDef *USBx)
{
 800247c:	b480      	push	{r7}
 800247e:	b085      	sub	sp, #20
 8002480:	af00      	add	r7, sp, #0
 8002482:	6078      	str	r0, [r7, #4]
  uint32_t USBx_BASE = (uint32_t)USBx;
 8002484:	687b      	ldr	r3, [r7, #4]
 8002486:	60fb      	str	r3, [r7, #12]

  return ((USBx_HOST->HAINT) & 0xFFFFU);
 8002488:	68fb      	ldr	r3, [r7, #12]
 800248a:	f503 6380 	add.w	r3, r3, #1024	@ 0x400
 800248e:	695b      	ldr	r3, [r3, #20]
 8002490:	b29b      	uxth	r3, r3
}
 8002492:	4618      	mov	r0, r3
 8002494:	3714      	adds	r7, #20
 8002496:	46bd      	mov	sp, r7
 8002498:	bc80      	pop	{r7}
 800249a:	4770      	bx	lr

0800249c <USB_HC_Halt>:
  * @param  hc_num  Host Channel number
  *         This parameter can be a value from 1 to 15
  * @retval HAL state
  */
HAL_StatusTypeDef USB_HC_Halt(const USB_OTG_GlobalTypeDef *USBx, uint8_t hc_num)
{
 800249c:	b480      	push	{r7}
 800249e:	b089      	sub	sp, #36	@ 0x24
 80024a0:	af00      	add	r7, sp, #0
 80024a2:	6078      	str	r0, [r7, #4]
 80024a4:	460b      	mov	r3, r1
 80024a6:	70fb      	strb	r3, [r7, #3]
  uint32_t USBx_BASE = (uint32_t)USBx;
 80024a8:	687b      	ldr	r3, [r7, #4]
 80024aa:	61fb      	str	r3, [r7, #28]
  uint32_t hcnum = (uint32_t)hc_num;
 80024ac:	78fb      	ldrb	r3, [r7, #3]
 80024ae:	61bb      	str	r3, [r7, #24]
  __IO uint32_t count = 0U;
 80024b0:	2300      	movs	r3, #0
 80024b2:	60bb      	str	r3, [r7, #8]
  uint32_t HcEpType = (USBx_HC(hcnum)->HCCHAR & USB_OTG_HCCHAR_EPTYP) >> 18;
 80024b4:	69bb      	ldr	r3, [r7, #24]
 80024b6:	015a      	lsls	r2, r3, #5
 80024b8:	69fb      	ldr	r3, [r7, #28]
 80024ba:	4413      	add	r3, r2
 80024bc:	f503 63a0 	add.w	r3, r3, #1280	@ 0x500
 80024c0:	681b      	ldr	r3, [r3, #0]
 80024c2:	0c9b      	lsrs	r3, r3, #18
 80024c4:	f003 0303 	and.w	r3, r3, #3
 80024c8:	617b      	str	r3, [r7, #20]
  uint32_t ChannelEna = (USBx_HC(hcnum)->HCCHAR & USB_OTG_HCCHAR_CHENA) >> 31;
 80024ca:	69bb      	ldr	r3, [r7, #24]
 80024cc:	015a      	lsls	r2, r3, #5
 80024ce:	69fb      	ldr	r3, [r7, #28]
 80024d0:	4413      	add	r3, r2
 80024d2:	f503 63a0 	add.w	r3, r3, #1280	@ 0x500
 80024d6:	681b      	ldr	r3, [r3, #0]
 80024d8:	0fdb      	lsrs	r3, r3, #31
 80024da:	f003 0301 	and.w	r3, r3, #1
 80024de:	613b      	str	r3, [r7, #16]
  uint32_t SplitEna = (USBx_HC(hcnum)->HCSPLT & USB_OTG_HCSPLT_SPLITEN) >> 31;
 80024e0:	69bb      	ldr	r3, [r7, #24]
 80024e2:	015a      	lsls	r2, r3, #5
 80024e4:	69fb      	ldr	r3, [r7, #28]
 80024e6:	4413      	add	r3, r2
 80024e8:	f503 63a0 	add.w	r3, r3, #1280	@ 0x500
 80024ec:	685b      	ldr	r3, [r3, #4]
 80024ee:	0fdb      	lsrs	r3, r3, #31
 80024f0:	f003 0301 	and.w	r3, r3, #1
 80024f4:	60fb      	str	r3, [r7, #12]

  /* In buffer DMA, Channel disable must not be programmed for non-split periodic channels.
     At the end of the next uframe/frame (in the worst case), the core generates a channel halted
     and disables the channel automatically. */

  if ((((USBx->GAHBCFG & USB_OTG_GAHBCFG_DMAEN) == USB_OTG_GAHBCFG_DMAEN) && (SplitEna == 0U)) &&
 80024f6:	687b      	ldr	r3, [r7, #4]
 80024f8:	689b      	ldr	r3, [r3, #8]
 80024fa:	f003 0320 	and.w	r3, r3, #32
 80024fe:	2b20      	cmp	r3, #32
 8002500:	d10d      	bne.n	800251e <USB_HC_Halt+0x82>
 8002502:	68fb      	ldr	r3, [r7, #12]
 8002504:	2b00      	cmp	r3, #0
 8002506:	d10a      	bne.n	800251e <USB_HC_Halt+0x82>
 8002508:	693b      	ldr	r3, [r7, #16]
 800250a:	2b00      	cmp	r3, #0
 800250c:	d005      	beq.n	800251a <USB_HC_Halt+0x7e>
      ((ChannelEna == 0U) || (((HcEpType == HCCHAR_ISOC) || (HcEpType == HCCHAR_INTR)))))
 800250e:	697b      	ldr	r3, [r7, #20]
 8002510:	2b01      	cmp	r3, #1
 8002512:	d002      	beq.n	800251a <USB_HC_Halt+0x7e>
 8002514:	697b      	ldr	r3, [r7, #20]
 8002516:	2b03      	cmp	r3, #3
 8002518:	d101      	bne.n	800251e <USB_HC_Halt+0x82>
  {
    return HAL_OK;
 800251a:	2300      	movs	r3, #0
 800251c:	e0d8      	b.n	80026d0 <USB_HC_Halt+0x234>
  }

  /* Check for space in the request queue to issue the halt. */
  if ((HcEpType == HCCHAR_CTRL) || (HcEpType == HCCHAR_BULK))
 800251e:	697b      	ldr	r3, [r7, #20]
 8002520:	2b00      	cmp	r3, #0
 8002522:	d002      	beq.n	800252a <USB_HC_Halt+0x8e>
 8002524:	697b      	ldr	r3, [r7, #20]
 8002526:	2b02      	cmp	r3, #2
 8002528:	d173      	bne.n	8002612 <USB_HC_Halt+0x176>
  {
    USBx_HC(hcnum)->HCCHAR |= USB_OTG_HCCHAR_CHDIS;
 800252a:	69bb      	ldr	r3, [r7, #24]
 800252c:	015a      	lsls	r2, r3, #5
 800252e:	69fb      	ldr	r3, [r7, #28]
 8002530:	4413      	add	r3, r2
 8002532:	f503 63a0 	add.w	r3, r3, #1280	@ 0x500
 8002536:	681b      	ldr	r3, [r3, #0]
 8002538:	69ba      	ldr	r2, [r7, #24]
 800253a:	0151      	lsls	r1, r2, #5
 800253c:	69fa      	ldr	r2, [r7, #28]
 800253e:	440a      	add	r2, r1
 8002540:	f502 62a0 	add.w	r2, r2, #1280	@ 0x500
 8002544:	f043 4380 	orr.w	r3, r3, #1073741824	@ 0x40000000
 8002548:	6013      	str	r3, [r2, #0]

    if ((USBx->GAHBCFG & USB_OTG_GAHBCFG_DMAEN) == 0U)
 800254a:	687b      	ldr	r3, [r7, #4]
 800254c:	689b      	ldr	r3, [r3, #8]
 800254e:	f003 0320 	and.w	r3, r3, #32
 8002552:	2b00      	cmp	r3, #0
 8002554:	d14a      	bne.n	80025ec <USB_HC_Halt+0x150>
    {
      if ((USBx->HNPTXSTS & (0xFFU << 16)) == 0U)
 8002556:	687b      	ldr	r3, [r7, #4]
 8002558:	6adb      	ldr	r3, [r3, #44]	@ 0x2c
 800255a:	f403 037f 	and.w	r3, r3, #16711680	@ 0xff0000
 800255e:	2b00      	cmp	r3, #0
 8002560:	d133      	bne.n	80025ca <USB_HC_Halt+0x12e>
      {
        USBx_HC(hcnum)->HCCHAR &= ~USB_OTG_HCCHAR_CHENA;
 8002562:	69bb      	ldr	r3, [r7, #24]
 8002564:	015a      	lsls	r2, r3, #5
 8002566:	69fb      	ldr	r3, [r7, #28]
 8002568:	4413      	add	r3, r2
 800256a:	f503 63a0 	add.w	r3, r3, #1280	@ 0x500
 800256e:	681b      	ldr	r3, [r3, #0]
 8002570:	69ba      	ldr	r2, [r7, #24]
 8002572:	0151      	lsls	r1, r2, #5
 8002574:	69fa      	ldr	r2, [r7, #28]
 8002576:	440a      	add	r2, r1
 8002578:	f502 62a0 	add.w	r2, r2, #1280	@ 0x500
 800257c:	f023 4300 	bic.w	r3, r3, #2147483648	@ 0x80000000
 8002580:	6013      	str	r3, [r2, #0]
        USBx_HC(hcnum)->HCCHAR |= USB_OTG_HCCHAR_CHENA;
 8002582:	69bb      	ldr	r3, [r7, #24]
 8002584:	015a      	lsls	r2, r3, #5
 8002586:	69fb      	ldr	r3, [r7, #28]
 8002588:	4413      	add	r3, r2
 800258a:	f503 63a0 	add.w	r3, r3, #1280	@ 0x500
 800258e:	681b      	ldr	r3, [r3, #0]
 8002590:	69ba      	ldr	r2, [r7, #24]
 8002592:	0151      	lsls	r1, r2, #5
 8002594:	69fa      	ldr	r2, [r7, #28]
 8002596:	440a      	add	r2, r1
 8002598:	f502 62a0 	add.w	r2, r2, #1280	@ 0x500
 800259c:	f043 4300 	orr.w	r3, r3, #2147483648	@ 0x80000000
 80025a0:	6013      	str	r3, [r2, #0]
        do
        {
          count++;
 80025a2:	68bb      	ldr	r3, [r7, #8]
 80025a4:	3301      	adds	r3, #1
 80025a6:	60bb      	str	r3, [r7, #8]

          if (count > 1000U)
 80025a8:	68bb      	ldr	r3, [r7, #8]
 80025aa:	f5b3 7f7a 	cmp.w	r3, #1000	@ 0x3e8
 80025ae:	d82e      	bhi.n	800260e <USB_HC_Halt+0x172>
          {
            break;
          }
        } while ((USBx_HC(hcnum)->HCCHAR & USB_OTG_HCCHAR_CHENA) == USB_OTG_HCCHAR_CHENA);
 80025b0:	69bb      	ldr	r3, [r7, #24]
 80025b2:	015a      	lsls	r2, r3, #5
 80025b4:	69fb      	ldr	r3, [r7, #28]
 80025b6:	4413      	add	r3, r2
 80025b8:	f503 63a0 	add.w	r3, r3, #1280	@ 0x500
 80025bc:	681b      	ldr	r3, [r3, #0]
 80025be:	f003 4300 	and.w	r3, r3, #2147483648	@ 0x80000000
 80025c2:	f1b3 4f00 	cmp.w	r3, #2147483648	@ 0x80000000
 80025c6:	d0ec      	beq.n	80025a2 <USB_HC_Halt+0x106>
    if ((USBx->GAHBCFG & USB_OTG_GAHBCFG_DMAEN) == 0U)
 80025c8:	e081      	b.n	80026ce <USB_HC_Halt+0x232>
      }
      else
      {
        USBx_HC(hcnum)->HCCHAR |= USB_OTG_HCCHAR_CHENA;
 80025ca:	69bb      	ldr	r3, [r7, #24]
 80025cc:	015a      	lsls	r2, r3, #5
 80025ce:	69fb      	ldr	r3, [r7, #28]
 80025d0:	4413      	add	r3, r2
 80025d2:	f503 63a0 	add.w	r3, r3, #1280	@ 0x500
 80025d6:	681b      	ldr	r3, [r3, #0]
 80025d8:	69ba      	ldr	r2, [r7, #24]
 80025da:	0151      	lsls	r1, r2, #5
 80025dc:	69fa      	ldr	r2, [r7, #28]
 80025de:	440a      	add	r2, r1
 80025e0:	f502 62a0 	add.w	r2, r2, #1280	@ 0x500
 80025e4:	f043 4300 	orr.w	r3, r3, #2147483648	@ 0x80000000
 80025e8:	6013      	str	r3, [r2, #0]
    if ((USBx->GAHBCFG & USB_OTG_GAHBCFG_DMAEN) == 0U)
 80025ea:	e070      	b.n	80026ce <USB_HC_Halt+0x232>
      }
    }
    else
    {
      USBx_HC(hcnum)->HCCHAR |= USB_OTG_HCCHAR_CHENA;
 80025ec:	69bb      	ldr	r3, [r7, #24]
 80025ee:	015a      	lsls	r2, r3, #5
 80025f0:	69fb      	ldr	r3, [r7, #28]
 80025f2:	4413      	add	r3, r2
 80025f4:	f503 63a0 	add.w	r3, r3, #1280	@ 0x500
 80025f8:	681b      	ldr	r3, [r3, #0]
 80025fa:	69ba      	ldr	r2, [r7, #24]
 80025fc:	0151      	lsls	r1, r2, #5
 80025fe:	69fa      	ldr	r2, [r7, #28]
 8002600:	440a      	add	r2, r1
 8002602:	f502 62a0 	add.w	r2, r2, #1280	@ 0x500
 8002606:	f043 4300 	orr.w	r3, r3, #2147483648	@ 0x80000000
 800260a:	6013      	str	r3, [r2, #0]
    if ((USBx->GAHBCFG & USB_OTG_GAHBCFG_DMAEN) == 0U)
 800260c:	e05f      	b.n	80026ce <USB_HC_Halt+0x232>
            break;
 800260e:	bf00      	nop
    if ((USBx->GAHBCFG & USB_OTG_GAHBCFG_DMAEN) == 0U)
 8002610:	e05d      	b.n	80026ce <USB_HC_Halt+0x232>
    }
  }
  else
  {
    USBx_HC(hcnum)->HCCHAR |= USB_OTG_HCCHAR_CHDIS;
 8002612:	69bb      	ldr	r3, [r7, #24]
 8002614:	015a      	lsls	r2, r3, #5
 8002616:	69fb      	ldr	r3, [r7, #28]
 8002618:	4413      	add	r3, r2
 800261a:	f503 63a0 	add.w	r3, r3, #1280	@ 0x500
 800261e:	681b      	ldr	r3, [r3, #0]
 8002620:	69ba      	ldr	r2, [r7, #24]
 8002622:	0151      	lsls	r1, r2, #5
 8002624:	69fa      	ldr	r2, [r7, #28]
 8002626:	440a      	add	r2, r1
 8002628:	f502 62a0 	add.w	r2, r2, #1280	@ 0x500
 800262c:	f043 4380 	orr.w	r3, r3, #1073741824	@ 0x40000000
 8002630:	6013      	str	r3, [r2, #0]

    if ((USBx_HOST->HPTXSTS & (0xFFU << 16)) == 0U)
 8002632:	69fb      	ldr	r3, [r7, #28]
 8002634:	f503 6380 	add.w	r3, r3, #1024	@ 0x400
 8002638:	691b      	ldr	r3, [r3, #16]
 800263a:	f403 037f 	and.w	r3, r3, #16711680	@ 0xff0000
 800263e:	2b00      	cmp	r3, #0
 8002640:	d133      	bne.n	80026aa <USB_HC_Halt+0x20e>
    {
      USBx_HC(hcnum)->HCCHAR &= ~USB_OTG_HCCHAR_CHENA;
 8002642:	69bb      	ldr	r3, [r7, #24]
 8002644:	015a      	lsls	r2, r3, #5
 8002646:	69fb      	ldr	r3, [r7, #28]
 8002648:	4413      	add	r3, r2
 800264a:	f503 63a0 	add.w	r3, r3, #1280	@ 0x500
 800264e:	681b      	ldr	r3, [r3, #0]
 8002650:	69ba      	ldr	r2, [r7, #24]
 8002652:	0151      	lsls	r1, r2, #5
 8002654:	69fa      	ldr	r2, [r7, #28]
 8002656:	440a      	add	r2, r1
 8002658:	f502 62a0 	add.w	r2, r2, #1280	@ 0x500
 800265c:	f023 4300 	bic.w	r3, r3, #2147483648	@ 0x80000000
 8002660:	6013      	str	r3, [r2, #0]
      USBx_HC(hcnum)->HCCHAR |= USB_OTG_HCCHAR_CHENA;
 8002662:	69bb      	ldr	r3, [r7, #24]
 8002664:	015a      	lsls	r2, r3, #5
 8002666:	69fb      	ldr	r3, [r7, #28]
 8002668:	4413      	add	r3, r2
 800266a:	f503 63a0 	add.w	r3, r3, #1280	@ 0x500
 800266e:	681b      	ldr	r3, [r3, #0]
 8002670:	69ba      	ldr	r2, [r7, #24]
 8002672:	0151      	lsls	r1, r2, #5
 8002674:	69fa      	ldr	r2, [r7, #28]
 8002676:	440a      	add	r2, r1
 8002678:	f502 62a0 	add.w	r2, r2, #1280	@ 0x500
 800267c:	f043 4300 	orr.w	r3, r3, #2147483648	@ 0x80000000
 8002680:	6013      	str	r3, [r2, #0]
      do
      {
        count++;
 8002682:	68bb      	ldr	r3, [r7, #8]
 8002684:	3301      	adds	r3, #1
 8002686:	60bb      	str	r3, [r7, #8]

        if (count > 1000U)
 8002688:	68bb      	ldr	r3, [r7, #8]
 800268a:	f5b3 7f7a 	cmp.w	r3, #1000	@ 0x3e8
 800268e:	d81d      	bhi.n	80026cc <USB_HC_Halt+0x230>
        {
          break;
        }
      } while ((USBx_HC(hcnum)->HCCHAR & USB_OTG_HCCHAR_CHENA) == USB_OTG_HCCHAR_CHENA);
 8002690:	69bb      	ldr	r3, [r7, #24]
 8002692:	015a      	lsls	r2, r3, #5
 8002694:	69fb      	ldr	r3, [r7, #28]
 8002696:	4413      	add	r3, r2
 8002698:	f503 63a0 	add.w	r3, r3, #1280	@ 0x500
 800269c:	681b      	ldr	r3, [r3, #0]
 800269e:	f003 4300 	and.w	r3, r3, #2147483648	@ 0x80000000
 80026a2:	f1b3 4f00 	cmp.w	r3, #2147483648	@ 0x80000000
 80026a6:	d0ec      	beq.n	8002682 <USB_HC_Halt+0x1e6>
 80026a8:	e011      	b.n	80026ce <USB_HC_Halt+0x232>
    }
    else
    {
      USBx_HC(hcnum)->HCCHAR |= USB_OTG_HCCHAR_CHENA;
 80026aa:	69bb      	ldr	r3, [r7, #24]
 80026ac:	015a      	lsls	r2, r3, #5
 80026ae:	69fb      	ldr	r3, [r7, #28]
 80026b0:	4413      	add	r3, r2
 80026b2:	f503 63a0 	add.w	r3, r3, #1280	@ 0x500
 80026b6:	681b      	ldr	r3, [r3, #0]
 80026b8:	69ba      	ldr	r2, [r7, #24]
 80026ba:	0151      	lsls	r1, r2, #5
 80026bc:	69fa      	ldr	r2, [r7, #28]
 80026be:	440a      	add	r2, r1
 80026c0:	f502 62a0 	add.w	r2, r2, #1280	@ 0x500
 80026c4:	f043 4300 	orr.w	r3, r3, #2147483648	@ 0x80000000
 80026c8:	6013      	str	r3, [r2, #0]
 80026ca:	e000      	b.n	80026ce <USB_HC_Halt+0x232>
          break;
 80026cc:	bf00      	nop
    }
  }

  return HAL_OK;
 80026ce:	2300      	movs	r3, #0
}
 80026d0:	4618      	mov	r0, r3
 80026d2:	3724      	adds	r7, #36	@ 0x24
 80026d4:	46bd      	mov	sp, r7
 80026d6:	bc80      	pop	{r7}
 80026d8:	4770      	bx	lr
	...

080026dc <__libc_init_array>:
 80026dc:	b570      	push	{r4, r5, r6, lr}
 80026de:	4b0d      	ldr	r3, [pc, #52]	@ (8002714 <__libc_init_array+0x38>)
 80026e0:	4d0d      	ldr	r5, [pc, #52]	@ (8002718 <__libc_init_array+0x3c>)
 80026e2:	1b5b      	subs	r3, r3, r5
 80026e4:	109c      	asrs	r4, r3, #2
 80026e6:	2600      	movs	r6, #0
 80026e8:	42a6      	cmp	r6, r4
 80026ea:	d109      	bne.n	8002700 <__libc_init_array+0x24>
 80026ec:	f000 f81a 	bl	8002724 <_init>
 80026f0:	4d0a      	ldr	r5, [pc, #40]	@ (800271c <__libc_init_array+0x40>)
 80026f2:	4b0b      	ldr	r3, [pc, #44]	@ (8002720 <__libc_init_array+0x44>)
 80026f4:	1b5b      	subs	r3, r3, r5
 80026f6:	109c      	asrs	r4, r3, #2
 80026f8:	2600      	movs	r6, #0
 80026fa:	42a6      	cmp	r6, r4
 80026fc:	d105      	bne.n	800270a <__libc_init_array+0x2e>
 80026fe:	bd70      	pop	{r4, r5, r6, pc}
 8002700:	f855 3b04 	ldr.w	r3, [r5], #4
 8002704:	4798      	blx	r3
 8002706:	3601      	adds	r6, #1
 8002708:	e7ee      	b.n	80026e8 <__libc_init_array+0xc>
 800270a:	f855 3b04 	ldr.w	r3, [r5], #4
 800270e:	4798      	blx	r3
 8002710:	3601      	adds	r6, #1
 8002712:	e7f2      	b.n	80026fa <__libc_init_array+0x1e>
 8002714:	0800273c 	.word	0x0800273c
 8002718:	0800273c 	.word	0x0800273c
 800271c:	0800273c 	.word	0x0800273c
 8002720:	08002740 	.word	0x08002740

08002724 <_init>:
 8002724:	b5f8      	push	{r3, r4, r5, r6, r7, lr}
 8002726:	bf00      	nop
 8002728:	bcf8      	pop	{r3, r4, r5, r6, r7}
 800272a:	bc08      	pop	{r3}
 800272c:	469e      	mov	lr, r3
 800272e:	4770      	bx	lr

08002730 <_fini>:
 8002730:	b5f8      	push	{r3, r4, r5, r6, r7, lr}
 8002732:	bf00      	nop
 8002734:	bcf8      	pop	{r3, r4, r5, r6, r7}
 8002736:	bc08      	pop	{r3}
 8002738:	469e      	mov	lr, r3
 800273a:	4770      	bx	lr
